Microchip Technology Inc, v@‰‰

Tool Name:
  c:\program files (x86)\microchip\xc16\v1.20\bin\bin\..\bin/coff-ld.exe

Command:
  -p24EP256MC206 \
  -o \
  BPT.cof \
  -Lc:/program files (x86)/microchip/xc16/v1.20/bin/bin/.. \
  -Lc:/program files (x86)/microchip/xc16/v1.20/bin/bin/../../lib \
  -Lc:/program files (x86)/microchip/xc16/v1.20/bin/bin/../../lib/PIC24E \
  -Lc:/program files (x86)/microchip/xc16/v1.20/bin/bin/../../support/PIC24E/gld \
  -Lc:/program files (x86)/microchip/xc16/v1.20/bin/bin/../../lib/PIC24F \
  -Lc:/program files (x86)/microchip/xc16/v1.20/bin/bin/../../support/PIC24F/gld \
  -Lc:/program files (x86)/microchip/xc16/v1.20/bin/bin/../../lib/PIC24H \
  -Lc:/program files (x86)/microchip/xc16/v1.20/bin/bin/../../support/PIC24H/gld \
  -Lc:/program files (x86)/microchip/xc16/v1.20/bin/bin/../../lib/dsPIC30F \
  -Lc:/program files (x86)/microchip/xc16/v1.20/bin/bin/../../support/dsPIC30F/gld \
  -Lc:/program files (x86)/microchip/xc16/v1.20/bin/bin/../../lib/dsPIC33E \
  -Lc:/program files (x86)/microchip/xc16/v1.20/bin/bin/../../support/dsPIC33E/gld \
  -Lc:/program files (x86)/microchip/xc16/v1.20/bin/bin/../../lib/dsPIC33F \
  -Lc:/program files (x86)/microchip/xc16/v1.20/bin/bin/../../support/dsPIC33F/gld \
  74HC595_Setup.o \
  ADC_Setup.o \
  BPT.o \
  BT_Functions.o \
  Delay_Setup.o \
  EEPROM_Setup.o \
  FAT32_Setup.o \
  Grid_Setup.o \
  Interrupts.o \
  IR_Controls.o \
  IR_Sensors.o \
  LCD_Setup.o \
  LED_Control.o \
  LED_Graphics.o \
  PORT_Setup.o \
  PWM_Setup.o \
  RS232_Setup.o \
  SD_Setup.o \
  SPI_Setup.o \
  Timers_Setup.o \
  TLC5955_Setup.o \
  LCD_Control.o \
  MSGEQ7_Setup.o \
  VU_Control.o \
  File_Handling.o \
  -Tp24EP256MC206_bootldr.gld.00 \
  --defsym=__MPLAB_BUILD=1 \
  -Map=BPT.map \
  --report-mem \
  -start-group \
  --library=fx-coff \
  --library=pic30-coff \
  --library=m-coff \
  --library=c-coff \
  -end-group \

Archive member included because of file (symbol)

c:/program files (x86)/microchip/xc16/v1.20/bin/bin/../../lib/PIC24E\libp24EP256MC206-coff.a(OpenHSPWM.o)
                              PWM_Setup.o (OpenHSPWM)
c:/program files (x86)/microchip/xc16/v1.20/bin/bin/../../lib/PIC24E\libp24EP256MC206-coff.a(ConfigHSPWM1.o)
                              PWM_Setup.o (ConfigHSPWM1)
c:/program files (x86)/microchip/xc16/v1.20/bin/bin/../../lib/PIC24E\libp24EP256MC206-coff.a(SetHSPWMDutyCycle1.o)
                              PWM_Setup.o (SetHSPWMDutyCycle1)
c:/program files (x86)/microchip/xc16/v1.20/bin/bin/../../lib/PIC24E\libp24EP256MC206-coff.a(SetHSPWMDeadTime1.o)
                              PWM_Setup.o (SetHSPWMDeadTime1)
c:/program files (x86)/microchip/xc16/v1.20/bin/bin/../../lib\libpic30-coff.a(crt0_extendedep.o)
                              (_resetPRI)
c:/program files (x86)/microchip/xc16/v1.20/bin/bin/../../lib\libpic30-coff.a(delay32ep.o)
                              BPT.o (__delay32)
c:/program files (x86)/microchip/xc16/v1.20/bin/bin/../../lib\libpic30-coff.a(data_init_extendedep.o)
                              c:/program files (x86)/microchip/xc16/v1.20/bin/bin/../../lib\libpic30-coff.a(crt0_extendedep.o) (_data_init_extended)
c:/program files (x86)/microchip/xc16/v1.20/bin/bin/../../lib\libm-coff.a(udivsi3.epo)
                              FAT32_Setup.o (__udivsi3)
c:/program files (x86)/microchip/xc16/v1.20/bin/bin/../../lib\libm-coff.a(umodsi3.epo)
                              FAT32_Setup.o (__umodsi3)
c:/program files (x86)/microchip/xc16/v1.20/bin/bin/../../lib\libm-coff.a(floatunsisf.epo)
                              LED_Control.o (__floatunsisf)
c:/program files (x86)/microchip/xc16/v1.20/bin/bin/../../lib\libm-coff.a(fixunssfsi.epo)
                              LED_Control.o (__fixunssfsi)
c:/program files (x86)/microchip/xc16/v1.20/bin/bin/../../lib\libm-coff.a(floatsisf.epo)
                              LED_Control.o (__floatsisf)
c:/program files (x86)/microchip/xc16/v1.20/bin/bin/../../lib\libm-coff.a(divsf3.epo)
                              LED_Control.o (__divsf3)
c:/program files (x86)/microchip/xc16/v1.20/bin/bin/../../lib\libm-coff.a(feqltle.epo)
                              LED_Control.o (__ltsf2)
c:/program files (x86)/microchip/xc16/v1.20/bin/bin/../../lib\libm-coff.a(fne.epo)
                              LED_Control.o (__nesf2)
c:/program files (x86)/microchip/xc16/v1.20/bin/bin/../../lib\libm-coff.a(addsf3.epo)
                              LED_Control.o (__subsf3)
c:/program files (x86)/microchip/xc16/v1.20/bin/bin/../../lib\libm-coff.a(mulsf3.epo)
                              LED_Graphics.o (__mulsf3)
c:/program files (x86)/microchip/xc16/v1.20/bin/bin/../../lib\libm-coff.a(sinf.epo)
                              LED_Graphics.o (sinf)
c:/program files (x86)/microchip/xc16/v1.20/bin/bin/../../lib\libm-coff.a(fixsfsi.epo)
                              LED_Graphics.o (__fixsfsi)
c:/program files (x86)/microchip/xc16/v1.20/bin/bin/../../lib\libm-coff.a(fgtge.epo)
                              LED_Graphics.o (__gtsf2)
c:/program files (x86)/microchip/xc16/v1.20/bin/bin/../../lib\libm-coff.a(divmoddi3.epo)
                              RS232_Setup.o (__divdi3)
c:/program files (x86)/microchip/xc16/v1.20/bin/bin/../../lib\libm-coff.a(floatundisf.epo)
                              c:/program files (x86)/microchip/xc16/v1.20/bin/bin/../../lib\libm-coff.a(floatunsisf.epo) (__floatundisf)
c:/program files (x86)/microchip/xc16/v1.20/bin/bin/../../lib\libm-coff.a(funpack.epo)
                              c:/program files (x86)/microchip/xc16/v1.20/bin/bin/../../lib\libm-coff.a(fixunssfsi.epo) (_funpack)
c:/program files (x86)/microchip/xc16/v1.20/bin/bin/../../lib\libm-coff.a(floatdisf.epo)
                              c:/program files (x86)/microchip/xc16/v1.20/bin/bin/../../lib\libm-coff.a(floatsisf.epo) (__floatdisf)
c:/program files (x86)/microchip/xc16/v1.20/bin/bin/../../lib\libm-coff.a(funpack2.epo)
                              c:/program files (x86)/microchip/xc16/v1.20/bin/bin/../../lib\libm-coff.a(divsf3.epo) (_funpack2)
c:/program files (x86)/microchip/xc16/v1.20/bin/bin/../../lib\libm-coff.a(futil.epo)
                              c:/program files (x86)/microchip/xc16/v1.20/bin/bin/../../lib\libm-coff.a(divsf3.epo) (_fPropagateNaN)
c:/program files (x86)/microchip/xc16/v1.20/bin/bin/../../lib\libm-coff.a(fpack.epo)
                              c:/program files (x86)/microchip/xc16/v1.20/bin/bin/../../lib\libm-coff.a(divsf3.epo) (_fpack)
c:/program files (x86)/microchip/xc16/v1.20/bin/bin/../../lib\libm-coff.a(fcompare.epo)
                              c:/program files (x86)/microchip/xc16/v1.20/bin/bin/../../lib\libm-coff.a(feqltle.epo) (_fcompare)
c:/program files (x86)/microchip/xc16/v1.20/bin/bin/../../lib\libm-coff.a(sincosf.epo)
                              c:/program files (x86)/microchip/xc16/v1.20/bin/bin/../../lib\libm-coff.a(sinf.epo) (_sincosf)
c:/program files (x86)/microchip/xc16/v1.20/bin/bin/../../lib\libm-coff.a(errno.epo)
                              c:/program files (x86)/microchip/xc16/v1.20/bin/bin/../../lib\libm-coff.a(sincosf.epo) (errno)
c:/program files (x86)/microchip/xc16/v1.20/bin/bin/../../lib\libm-coff.a(fmodf.epo)
                              c:/program files (x86)/microchip/xc16/v1.20/bin/bin/../../lib\libm-coff.a(sincosf.epo) (fmodf)
c:/program files (x86)/microchip/xc16/v1.20/bin/bin/../../lib\libm-coff.a(fmodrem.epo)
                              c:/program files (x86)/microchip/xc16/v1.20/bin/bin/../../lib\libm-coff.a(fmodf.epo) (_fmodrem)
c:/program files (x86)/microchip/xc16/v1.20/bin/bin/../../lib\libc-coff.a(printf_s.EPo)
                              BT_Functions.o (_printf_s)
c:/program files (x86)/microchip/xc16/v1.20/bin/bin/../../lib\libc-coff.a(memcpy.epo)
                              BT_Functions.o (memcpy)
c:/program files (x86)/microchip/xc16/v1.20/bin/bin/../../lib\libc-coff.a(printf_cdnopsuxX.EPo)
                              BT_Functions.o (_printf_cdnopsuxX)
c:/program files (x86)/microchip/xc16/v1.20/bin/bin/../../lib\libc-coff.a(puts.epo)
                              BT_Functions.o (puts)
c:/program files (x86)/microchip/xc16/v1.20/bin/bin/../../lib\libc-coff.a(strcmp.epo)
                              BT_Functions.o (strcmp)
c:/program files (x86)/microchip/xc16/v1.20/bin/bin/../../lib\libc-coff.a(strncmp.epo)
                              FAT32_Setup.o (strncmp)
c:/program files (x86)/microchip/xc16/v1.20/bin/bin/../../lib\libc-coff.a(memset.epo)
                              FAT32_Setup.o (memset)
c:/program files (x86)/microchip/xc16/v1.20/bin/bin/../../lib\libc-coff.a(printf_cdnopuxX.EPo)
                              FAT32_Setup.o (_printf_cdnopuxX)
c:/program files (x86)/microchip/xc16/v1.20/bin/bin/../../lib\libc-coff.a(putchar.epo)
                              FAT32_Setup.o (putchar)
c:/program files (x86)/microchip/xc16/v1.20/bin/bin/../../lib\libc-coff.a(strlen.epo)
                              LED_Graphics.o (strlen)
c:/program files (x86)/microchip/xc16/v1.20/bin/bin/../../lib\libc-coff.a(sprintf_cdnopuxX.EPo)
                              LCD_Control.o (_sprintf_cdnopuxX)
c:/program files (x86)/microchip/xc16/v1.20/bin/bin/../../lib\libc-coff.a(_iob.epo)
                              c:/program files (x86)/microchip/xc16/v1.20/bin/bin/../../lib\libc-coff.a(printf_s.EPo) (_iob)
c:/program files (x86)/microchip/xc16/v1.20/bin/bin/../../lib\libc-coff.a(doprnt_s.EPo)
                              c:/program files (x86)/microchip/xc16/v1.20/bin/bin/../../lib\libc-coff.a(printf_s.EPo) (_vfprintf_s)
c:/program files (x86)/microchip/xc16/v1.20/bin/bin/../../lib\libc-coff.a(doprnt_cdnopsuxX.EPo)
                              c:/program files (x86)/microchip/xc16/v1.20/bin/bin/../../lib\libc-coff.a(printf_cdnopsuxX.EPo) (_vfprintf_cdnopsuxX)
c:/program files (x86)/microchip/xc16/v1.20/bin/bin/../../lib\libc-coff.a(fputc.epo)
                              c:/program files (x86)/microchip/xc16/v1.20/bin/bin/../../lib\libc-coff.a(puts.epo) (fputc)
c:/program files (x86)/microchip/xc16/v1.20/bin/bin/../../lib\libc-coff.a(doprnt_cdnopuxX.EPo)
                              c:/program files (x86)/microchip/xc16/v1.20/bin/bin/../../lib\libc-coff.a(printf_cdnopuxX.EPo) (_vfprintf_cdnopuxX)
c:/program files (x86)/microchip/xc16/v1.20/bin/bin/../../lib\libc-coff.a(flsbuf.epo)
                              c:/program files (x86)/microchip/xc16/v1.20/bin/bin/../../lib\libc-coff.a(fputc.epo) (_flsbuf)
c:/program files (x86)/microchip/xc16/v1.20/bin/bin/../../lib\libpic30-coff.a(writeep.o)
                              c:/program files (x86)/microchip/xc16/v1.20/bin/bin/../../lib\libc-coff.a(fputc.epo) (write)
c:/program files (x86)/microchip/xc16/v1.20/bin/bin/../../lib\libpic30-coff.a(c30_uartep.o)
                              c:/program files (x86)/microchip/xc16/v1.20/bin/bin/../../lib\libpic30-coff.a(writeep.o) (__C30_UART)
c:/program files (x86)/microchip/xc16/v1.20/bin/bin/../../lib\libm-coff.a(mulsi3.epo)
                              c:/program files (x86)/microchip/xc16/v1.20/bin/bin/../../lib\libc-coff.a(doprnt_s.EPo) (__mulsi3)
c:/program files (x86)/microchip/xc16/v1.20/bin/bin/../../lib\libm-coff.a(muldi3.epo)
                              c:/program files (x86)/microchip/xc16/v1.20/bin/bin/../../lib\libc-coff.a(doprnt_cdnopsuxX.EPo) (__muldi3)
c:/program files (x86)/microchip/xc16/v1.20/bin/bin/../../lib\libm-coff.a(umuldi3.epo)
                              c:/program files (x86)/microchip/xc16/v1.20/bin/bin/../../lib\libm-coff.a(muldi3.epo) (__umuldi3)


Program Memory  [Origin = 0x1300, Length = 0x29cea]

section                    address   length (PC units)   length (bytes) (dec)
-------                    -------   -----------------   --------------------
.text                       0x1300              0x1266          0x1b99  (7065)
.const                      0x2566              0x2bc4          0x41a6  (16806)
.text                       0x512a              0x9de2          0xecd3  (60627)
.dinit                      0xef0c               0x218           0x324  (804)
.text                       0xf124               0x9c2           0xea3  (3747)

                     Total program memory used (bytes):        0x15bd9  (89049) 34%


Data Memory  [Origin = 0x1000, Length = 0x8000]

section                    address      alignment gaps    total length  (dec)
-------                    -------      --------------    -------------------
.nbss                       0x1000                   0           0x5e8  (1512)
.ndata                      0x15e8                   0           0x12a  (298)
.nbss                       0x1712                   0           0x128  (296)
.ndata                      0x183a                   0            0x5c  (92)
.nbss                       0x1896                   0            0x4c  (76)
.bss                        0x18e2                   0          0x1000  (4096)
.data.dpowers               0x28e2                   0            0xa0  (160)
.data                       0x2982                   0            0x2a  (42)
.data._iob                  0x29ac                   0            0x26  (38)
.bss                        0x29d2                   0             0x6  (6)
.data                       0x29d8                   0             0x2  (2)

                        Total data memory used (bytes):         0x19da  (6618) 20%


Dynamic Memory Usage

region                     address                      maximum length  (dec)
------                     -------                      ---------------------
heap                             0                                   0  (0)
stack                       0x29da                              0x5626  (22054)

                        Maximum dynamic memory (bytes):         0x5626  (22054)


External Symbols in Data Memory (by address):

                    0x1000                  _seq
                    0x1032                  _uart_str
                    0x1052                  _global_str
                    0x1092                  _UART_rx_buf
                    0x1112                  _NEC_code
                    0x1116                  _cal_light
                    0x1146                  _IR_value
                    0x1176                  _PODn
                    0x1272                  _RGB_DIFF
                    0x1398                  _RING_DIFF
                    0x13f8                  _IR_duty
                    0x13fa                  _TLC_data
                    0x14ba                  _TLC_data2
                    0x157a                  _RINGn
                    0x159a                  _str_index
                    0x159b                  _letter_buffer
                    0x15a2                  _error_code
                    0x15a3                  _str_length
                    0x15a4                  _scroll_status
                    0x15a6                  _TLC
                    0x15a8                  _tlc_delay
                    0x15aa                  _fLED
                    0x15ae                  _ring_update
                    0x15b0                  _pod_update
                    0x15b4                  _FLAG1
                    0x15b6                  _FAT32
                    0x15e8                  _DA_grid
                    0x15ec                  _DA_pods
                    0x15f0                  _DA_rings
                    0x15f4                  _LCD_pmenu
                    0x15f5                  _LCD_cmenu
                    0x15f6                  _ball_washers
                    0x15f8                  _IR_sensors
                    0x15fc                  _count32
                    0x1600                  _grid_row
                    0x1630                  _grid_frame
                    0x1660                  _pod_brightness
                    0x1662                  _ring_brightness
                    0x1664                  _frame_update
                    0x1665                  _keypress
                    0x1666                  _VU_Meter
                    0x1668                  _COLOR
                    0x16ec                  _CUSTOM_COLOR1
                    0x16f8                  _CUSTOM_COLOR2
                    0x1704                  _VU_signal
                    0x18e2                  _SD_buf
                    0x29ac                  __iob
                    0x29d0                  __Files
                    0x29d2                  __outdone
                    0x29d3                  __sibuf
                    0x29d5                  __sobuf
                    0x29d8                  ___C30_UART

External Symbols in Data Memory (by name):

                    0x1668                  _COLOR
                    0x16ec                  _CUSTOM_COLOR1
                    0x16f8                  _CUSTOM_COLOR2
                    0x15e8                  _DA_grid
                    0x15ec                  _DA_pods
                    0x15f0                  _DA_rings
                    0x15b6                  _FAT32
                    0x15b4                  _FLAG1
                    0x13f8                  _IR_duty
                    0x15f8                  _IR_sensors
                    0x1146                  _IR_value
                    0x15f5                  _LCD_cmenu
                    0x15f4                  _LCD_pmenu
                    0x1112                  _NEC_code
                    0x1176                  _PODn
                    0x1272                  _RGB_DIFF
                    0x1398                  _RING_DIFF
                    0x157a                  _RINGn
                    0x18e2                  _SD_buf
                    0x15a6                  _TLC
                    0x13fa                  _TLC_data
                    0x14ba                  _TLC_data2
                    0x1092                  _UART_rx_buf
                    0x1666                  _VU_Meter
                    0x1704                  _VU_signal
                    0x29d0                  __Files
                    0x29d8                  ___C30_UART
                    0x29ac                  __iob
                    0x29d2                  __outdone
                    0x29d3                  __sibuf
                    0x29d5                  __sobuf
                    0x15f6                  _ball_washers
                    0x1116                  _cal_light
                    0x15fc                  _count32
                    0x15a2                  _error_code
                    0x15aa                  _fLED
                    0x1664                  _frame_update
                    0x1052                  _global_str
                    0x1630                  _grid_frame
                    0x1600                  _grid_row
                    0x1665                  _keypress
                    0x159b                  _letter_buffer
                    0x1660                  _pod_brightness
                    0x15b0                  _pod_update
                    0x1662                  _ring_brightness
                    0x15ae                  _ring_update
                    0x15a4                  _scroll_status
                    0x1000                  _seq
                    0x159a                  _str_index
                    0x15a3                  _str_length
                    0x15a8                  _tlc_delay
                    0x1032                  _uart_str

External Symbols in Program Memory (by address):

                  0x001300                  __resetPRI
                  0x001326                  __psv_init
                  0x001332                  ___delay32
                  0x00134e                  __data_init_extended
                  0x00134e                  __data_init
                  0x0013e8                  __DefaultInterrupt
                  0x001454                  ___udivsi3
                  0x001474                  ___umodsi3
                  0x00147a                  ___floatunsisf
                  0x00147e                  ___fixunssfsi
                  0x0014b4                  ___floatsisf
                  0x0014ba                  ___divsf3
                  0x00153e                  ___ltsf2
                  0x00153e                  ___eqsf2
                  0x00153e                  ___lesf2
                  0x001542                  ___nesf2
                  0x001546                  ___subsf3
                  0x001548                  ___addsf3
                  0x001602                  ___mulsf3
                  0x00166a                  _sinf
                  0x00166e                  ___fixsfsi
                  0x0016b0                  ___gesf2
                  0x0016b0                  ___gtsf2
                  0x00171c                  ___udivmoddi3
                  0x00179a                  ___udivdi3
                  0x0017ac                  ___umoddi3
                  0x0017b8                  ___divdi3
                  0x0017ea                  ___moddi3
                  0x0018b8                  ___floatundisf
                  0x001916                  __funpack
                  0x001940                  ___floatdisf
                  0x001960                  __funpack2
                  0x001970                  __fPropagateNaN
                  0x001982                  __fbopExit
                  0x00198a                  __fbopReturnNaN
                  0x001990                  __fpack
                  0x0019dc                  __fcompare
                  0x001a12                  __sincosf
                  0x001ae4                  _fmodf
                  0x001ae8                  __fmodrem
                  0x001b86                  ___mulp32eds3
                  0x001b86                  ___mulp32peds3
                  0x001b86                  ___mulsi3
                  0x001b92                  ___muldi3
                  0x001be8                  ___umuldi3
                  0x001c2c                  _OpenHSPWM
                  0x001c3a                  _ConfigHSPWM1
                  0x001c48                  _SetHSPWMDutyCycle1
                  0x001c50                  _SetHSPWMDeadTime1
                  0x001c5a                  _memcpy
                  0x001c6c                  __printf_s
                  0x001c6c                  __printf_cdnopsuxX
                  0x001c6c                  __printf_cdnopuxX
                  0x001c6c                  __printf_0
                  0x001c7a                  _fputs
                  0x001c9a                  _puts
                  0x001cb2                  _strcmp
                  0x001cc4                  _strncmp
                  0x001cea                  _memset
                  0x001cfc                  _putchar
                  0x001d06                  _strlen
                  0x001d18                  __sprintf_cdnopuxX
                  0x001d42                  __vfprintf_s
                  0x001d42                  __vfprintf_cdnopsuxX
                  0x001d42                  __vfprintf_0
                  0x001d42                  __vfprintf_cdnopuxX
                  0x004472                  _DEFAULT_COLOR
                  0x0044f6                  _UART_CMD
                  0x004b6a                  _font_5x7
                  0x00512a                  _Intro_Animation
                  0x00529a                  _Animate_On_Detection
                  0x00530a                  _Corner_Circles_On_Detection
                  0x005352                  _Scrolling_Arrows_On_Detection
                  0x0053c2                  _Ball_Washer
                  0x0053e2                  _Ball_Washers_Detect
                  0x005800                  _Check_Pod_Animation
                  0x005a68                  _Check_Grid_Animation
                  0x005b1e                  _Check_Ring_Animation
                  0x005b60                  _Cycle_Grid_Animations
                  0x005cd8                  _Cycle_Pod_Animations
                  0x005ec2                  _Cycle_Pod_Animations_Sense
                  0x006030                  _Cycle_Ring_Animations
                  0x0060c4                  _Box_Grid_In
                  0x006158                  _Checkers
                  0x00620c                  _Circle_Out
                  0x006292                  _Color_Throb
                  0x0064d6                  _Corner_Circles
                  0x00665e                  _Crossfade_Rings
                  0x0068e8                  _Cycle_Colors
                  0x006988                  _Cycle_Rings
                  0x006c12                  _Fade_Pod_Colors
                  0x0072ec                  _LED_Pixel
                  0x007388                  _Draw_Border
                  0x0073f4                  _Draw_Circle
                  0x0074fc                  _Draw_Rect
                  0x007576                  _Invert_Grid
                  0x0075a6                  _Draw_Sine
                  0x007702                  _Dual_Wave
                  0x00792c                  _End_Blast
                  0x007c3a                  _Exploding_Circle
                  0x007cbe                  _On_Pod_Change
                  0x007ddc                  _Pod_Detect
                  0x007e44                  _Pyramid_Chase
                  0x007f22                  _Ring_Chase
                  0x008034                  _Ripple_Out
                  0x008ca4                  _Scoreboard
                  0x008d94                  _Set_Scrolling_Text
                  0x008e10                  _Set_Text
                  0x009020                  _Scrolling_Arrows
                  0x00917c                  _Update_Text
                  0x009280                  _Pong_Animation
                  0x00962c                  _Reset_Sequences
                  0x009716                  _LCD_Screensaver
                  0x009736                  _LCD_Settings
                  0x009756                  _LCD_Ball_Washers
                  0x009788                  _LCD_Firmware_Update
                  0x0097a8                  _LCD_Brightness
                  0x0097c8                  _LCD_Brightness_Pods
                  0x009832                  _LCD_Brightness_Rings
                  0x0098a0                  _LCD_Calibrate_Sensors
                  0x0098c0                  _LCD_Underlighting
                  0x0098e0                  _LCD_Pod_Animations
                  0x009900                  _LCD_Grid_Animations
                  0x009920                  _LCD_Ring_Animations
                  0x009940                  _LCD_VU_Meter_Menu
                  0x009960                  _LCD_VU_Mode1
                  0x009978                  _LCD_VU_Mode2
                  0x009990                  _LCD_VU_Mode3
                  0x0099a8                  _LCD_VU_Mode4
                  0x0099c0                  _LCD_VU_Random
                  0x0099d8                  _LCD_Scoreboard_Menu
                  0x0099f8                  _LCD_Show_Scoreboard
                  0x009ab2                  _LCD_File_Transfer
                  0x009aca                  _LCD_SD_Animation
                  0x009ae2                  _LCD_SD_Card_Menu
                  0x009b02                  _LCD_Bootloader_Msg
                  0x009bc0                  _Update_LCD_Menu
                  0x00a158                  _Handle_Key_Command
                  0x00ad08                  _FAT32_Init
                  0x00aea0                  _FAT32_Open_File
                  0x00b154                  _FAT32_Read_File
                  0x00b2c4                  _FAT32_Write_File
                  0x00b7ba                  _FAT32_Total_Free_Clusters
                  0x00b81e                  _FAT32_Next_Cluster
                  0x00b8dc                  _FAT32_Last_Cluster
                  0x00b9b2                  _FAT32_Get_Offset
                  0x00b9d4                  _FAT32_Next_Free_Cluster
                  0x00bad6                  _FAT32_Write_FAT
                  0x00bbbc                  _FAT32_Display_MBR
                  0x00bc96                  _FAT32_File_Properties
                  0x00bd02                  _FAT32_Display_Data
                  0x00bd80                  _Update_Channel
                  0x00bd98                  _RGB_Pod
                  0x00be40                  _RGB_Underlighting
                  0x00bea4                  _Adjust_Pod_Brightness
                  0x00c06a                  _Fill_Grid
                  0x00c08e                  _Clear_Grid
                  0x00c0b0                  _Disable_All_Features
                  0x00c10e                  _Update_Ring
                  0x00c14e                  _Fade_All_Pods
                  0x00c182                  _Fade_All_Rings
                  0x00c1cc                  _Fade_Pod
                  0x00c34a                  _Fade_State
                  0x00c58c                  _Fade_Ring
                  0x00c61c                  _Pod_Set_Color
                  0x00c662                  _Set_All_Pods
                  0x00c694                  _Set_All_Rings
                  0x00c6ce                  _Pods_VU_Mode1
                  0x00c8ee                  _Pods_VU_Mode2
                  0x00ccee                  _Display_Data
                  0x00cd24                  _Bargraph_Update
                  0x00cdf8                  _Grid_VU_Mode1
                  0x00ce7a                  _Grid_VU_Mode2
                  0x00cffe                  _HC06_Init
                  0x00d150                  _Receive_Buffer_Size
                  0x00d1da                  _Check_UART_Command
                  0x00d26c                  _BT_Update_LED_Grid
                  0x00d2f0                  _BT_IR_Sensor_Data
                  0x00d3d6                  _Clear_UART_String
                  0x00d3f4                  _Debug_Menu
                  0x00d472                  _EEPROM_Help_Menu
                  0x00d4dc                  _Find_Char
                  0x00d50e                  _Find_Command
                  0x00d542                  _Help_Menu
                  0x00d57c                  _LED_Ring_Help_Menu
                  0x00d5de                  _Pixel_Help_Menu
                  0x00d650                  _Pod_Help_Menu
                  0x00d6e6                  _UART_Execute_Command
                  0x00d6f6                  _SD_Command
                  0x00d728                  _SD_Match
                  0x00d75e                  _SD_Busy
                  0x00d786                  _SD_Read_CSD
                  0x00d7f0                  _SD_Capacity
                  0x00d89c                  _SD_Init
                  0x00d92a                  _SD_Read_Sector
                  0x00d9e6                  _SD_Read_Mul_Sectors
                  0x00dadc                  _SD_Write_Sector
                  0x00db98                  _SD_Write_Mul_Sectors
                  0x00dc90                  _SD_Erase_Sectors
                  0x00dd92                  _Parse_IR_Data
                  0x00df16                  _Check_Remote
                  0x00e2bc                  _LCD_Init
                  0x00e336                  _LCD_CMD
                  0x00e44c                  _LCD_Send
                  0x00e562                  _LCD_Cursor_Pos
                  0x00e57c                  _LCD_Text
                  0x00e5b2                  _LCD_Char
                  0x00e5c0                  _LCD_Create_Character
                  0x00e602                  _main
                  0x00e760                  __T1Interrupt
                  0x00e794                  __T3Interrupt
                  0x00e7ce                  __T4Interrupt
                  0x00e7e4                  __T5Interrupt
                  0x00e818                  __U1RXInterrupt
                  0x00e900                  __INT0Interrupt
                  0x00e914                  __IC1Interrupt
                  0x00e93c                  _MSGEQ7_Init
                  0x00e94e                  _MSGEQ7_Read
                  0x00e988                  _MSGEQ7_Auto_Adjust
                  0x00ec6a                  _Sensor_Calibration
                  0x00eda4                  _Update_All_Sensors
                  0x00eee6                  _Enable_IR_Sensors
                  0x00eefa                  _Set_IR_PWM
                  0x00f124                  _TLC5955_Init
                  0x00f1fe                  _TLC5955_Default_Init
                  0x00f236                  _TLC5955_Update
                  0x00f262                  _Write_Single_Bit
                  0x00f286                  _TLC5955_Write_GS
                  0x00f2fc                  _Grid_Init
                  0x00f304                  _Grid_Frame_Update
                  0x00f332                  _Grid_Control
                  0x00f412                  _Shift_Grid_Right
                  0x00f450                  _Shift_Grid_Left
                  0x00f48e                  _EEPROM_Init
                  0x00f498                  _EEPROM_Command
                  0x00f4ac                  _EEPROM_Write
                  0x00f552                  _EEPROM_Read
                  0x00f59a                  _EEPROM_Status
                  0x00f5b4                  _PORT_Init
                  0x00f61e                  _Oscillator_Init
                  0x00f676                  _Modules_Init
                  0x00f6d2                  _INT0_Init
                  0x00f710                  _INT1_Init
                  0x00f750                  _INT2_Init
                  0x00f792                  _UART_Init
                  0x00f7e8                  _UART_Set_Baudrate
                  0x00f812                  _UART_Tx
                  0x00f82c                  _UART_Rx
                  0x00f848                  _Run_SD_Animation
                  0x00f8e8                  _ADC_Init
                  0x00f91e                  _ADC_Read
                  0x00f936                  _ADC_Read_SS
                  0x00f96a                  _TMR1_Init
                  0x00f986                  _TMR2_Init
                  0x00f994                  _TMR3_Init
                  0x00f9b0                  _TMR4_Init
                  0x00f9cc                  _TMR5_Init
                  0x00f9e8                  _SPI1_Init
                  0x00f9fc                  _SPI2_Init
                  0x00fa10                  _SPI1_Send
                  0x00fa2a                  _SPI2_Send
                  0x00fa44                  _HC595_Init
                  0x00fa50                  _HC595_Reset
                  0x00fa5a                  _HC595_Send_Data
                  0x00fa84                  _PWM1_Init
                  0x00fab6                  _Time_Check

External Symbols in Program Memory (by name):

                  0x00f8e8                  _ADC_Init
                  0x00f91e                  _ADC_Read
                  0x00f936                  _ADC_Read_SS
                  0x00bea4                  _Adjust_Pod_Brightness
                  0x00529a                  _Animate_On_Detection
                  0x00d2f0                  _BT_IR_Sensor_Data
                  0x00d26c                  _BT_Update_LED_Grid
                  0x0053c2                  _Ball_Washer
                  0x0053e2                  _Ball_Washers_Detect
                  0x00cd24                  _Bargraph_Update
                  0x0060c4                  _Box_Grid_In
                  0x005a68                  _Check_Grid_Animation
                  0x005800                  _Check_Pod_Animation
                  0x00df16                  _Check_Remote
                  0x005b1e                  _Check_Ring_Animation
                  0x00d1da                  _Check_UART_Command
                  0x006158                  _Checkers
                  0x00620c                  _Circle_Out
                  0x00c08e                  _Clear_Grid
                  0x00d3d6                  _Clear_UART_String
                  0x006292                  _Color_Throb
                  0x001c3a                  _ConfigHSPWM1
                  0x0064d6                  _Corner_Circles
                  0x00530a                  _Corner_Circles_On_Detection
                  0x00665e                  _Crossfade_Rings
                  0x0068e8                  _Cycle_Colors
                  0x005b60                  _Cycle_Grid_Animations
                  0x005cd8                  _Cycle_Pod_Animations
                  0x005ec2                  _Cycle_Pod_Animations_Sense
                  0x006030                  _Cycle_Ring_Animations
                  0x006988                  _Cycle_Rings
                  0x004472                  _DEFAULT_COLOR
                  0x00d3f4                  _Debug_Menu
                  0x00c0b0                  _Disable_All_Features
                  0x00ccee                  _Display_Data
                  0x007388                  _Draw_Border
                  0x0073f4                  _Draw_Circle
                  0x0074fc                  _Draw_Rect
                  0x0075a6                  _Draw_Sine
                  0x007702                  _Dual_Wave
                  0x00f498                  _EEPROM_Command
                  0x00d472                  _EEPROM_Help_Menu
                  0x00f48e                  _EEPROM_Init
                  0x00f552                  _EEPROM_Read
                  0x00f59a                  _EEPROM_Status
                  0x00f4ac                  _EEPROM_Write
                  0x00eee6                  _Enable_IR_Sensors
                  0x00792c                  _End_Blast
                  0x007c3a                  _Exploding_Circle
                  0x00bd02                  _FAT32_Display_Data
                  0x00bbbc                  _FAT32_Display_MBR
                  0x00bc96                  _FAT32_File_Properties
                  0x00b9b2                  _FAT32_Get_Offset
                  0x00ad08                  _FAT32_Init
                  0x00b8dc                  _FAT32_Last_Cluster
                  0x00b81e                  _FAT32_Next_Cluster
                  0x00b9d4                  _FAT32_Next_Free_Cluster
                  0x00aea0                  _FAT32_Open_File
                  0x00b154                  _FAT32_Read_File
                  0x00b7ba                  _FAT32_Total_Free_Clusters
                  0x00bad6                  _FAT32_Write_FAT
                  0x00b2c4                  _FAT32_Write_File
                  0x00c14e                  _Fade_All_Pods
                  0x00c182                  _Fade_All_Rings
                  0x00c1cc                  _Fade_Pod
                  0x006c12                  _Fade_Pod_Colors
                  0x00c58c                  _Fade_Ring
                  0x00c34a                  _Fade_State
                  0x00c06a                  _Fill_Grid
                  0x00d4dc                  _Find_Char
                  0x00d50e                  _Find_Command
                  0x00f332                  _Grid_Control
                  0x00f304                  _Grid_Frame_Update
                  0x00f2fc                  _Grid_Init
                  0x00cdf8                  _Grid_VU_Mode1
                  0x00ce7a                  _Grid_VU_Mode2
                  0x00cffe                  _HC06_Init
                  0x00fa44                  _HC595_Init
                  0x00fa50                  _HC595_Reset
                  0x00fa5a                  _HC595_Send_Data
                  0x00a158                  _Handle_Key_Command
                  0x00d542                  _Help_Menu
                  0x00f6d2                  _INT0_Init
                  0x00f710                  _INT1_Init
                  0x00f750                  _INT2_Init
                  0x00512a                  _Intro_Animation
                  0x007576                  _Invert_Grid
                  0x009756                  _LCD_Ball_Washers
                  0x009b02                  _LCD_Bootloader_Msg
                  0x0097a8                  _LCD_Brightness
                  0x0097c8                  _LCD_Brightness_Pods
                  0x009832                  _LCD_Brightness_Rings
                  0x00e336                  _LCD_CMD
                  0x0098a0                  _LCD_Calibrate_Sensors
                  0x00e5b2                  _LCD_Char
                  0x00e5c0                  _LCD_Create_Character
                  0x00e562                  _LCD_Cursor_Pos
                  0x009ab2                  _LCD_File_Transfer
                  0x009788                  _LCD_Firmware_Update
                  0x009900                  _LCD_Grid_Animations
                  0x00e2bc                  _LCD_Init
                  0x0098e0                  _LCD_Pod_Animations
                  0x009920                  _LCD_Ring_Animations
                  0x009aca                  _LCD_SD_Animation
                  0x009ae2                  _LCD_SD_Card_Menu
                  0x0099d8                  _LCD_Scoreboard_Menu
                  0x009716                  _LCD_Screensaver
                  0x00e44c                  _LCD_Send
                  0x009736                  _LCD_Settings
                  0x0099f8                  _LCD_Show_Scoreboard
                  0x00e57c                  _LCD_Text
                  0x0098c0                  _LCD_Underlighting
                  0x009940                  _LCD_VU_Meter_Menu
                  0x009960                  _LCD_VU_Mode1
                  0x009978                  _LCD_VU_Mode2
                  0x009990                  _LCD_VU_Mode3
                  0x0099a8                  _LCD_VU_Mode4
                  0x0099c0                  _LCD_VU_Random
                  0x0072ec                  _LED_Pixel
                  0x00d57c                  _LED_Ring_Help_Menu
                  0x00e988                  _MSGEQ7_Auto_Adjust
                  0x00e93c                  _MSGEQ7_Init
                  0x00e94e                  _MSGEQ7_Read
                  0x00f676                  _Modules_Init
                  0x007cbe                  _On_Pod_Change
                  0x001c2c                  _OpenHSPWM
                  0x00f61e                  _Oscillator_Init
                  0x00f5b4                  _PORT_Init
                  0x00fa84                  _PWM1_Init
                  0x00dd92                  _Parse_IR_Data
                  0x00d5de                  _Pixel_Help_Menu
                  0x007ddc                  _Pod_Detect
                  0x00d650                  _Pod_Help_Menu
                  0x00c61c                  _Pod_Set_Color
                  0x00c6ce                  _Pods_VU_Mode1
                  0x00c8ee                  _Pods_VU_Mode2
                  0x009280                  _Pong_Animation
                  0x007e44                  _Pyramid_Chase
                  0x00bd98                  _RGB_Pod
                  0x00be40                  _RGB_Underlighting
                  0x00d150                  _Receive_Buffer_Size
                  0x00962c                  _Reset_Sequences
                  0x007f22                  _Ring_Chase
                  0x008034                  _Ripple_Out
                  0x00f848                  _Run_SD_Animation
                  0x00d75e                  _SD_Busy
                  0x00d7f0                  _SD_Capacity
                  0x00d6f6                  _SD_Command
                  0x00dc90                  _SD_Erase_Sectors
                  0x00d89c                  _SD_Init
                  0x00d728                  _SD_Match
                  0x00d786                  _SD_Read_CSD
                  0x00d9e6                  _SD_Read_Mul_Sectors
                  0x00d92a                  _SD_Read_Sector
                  0x00db98                  _SD_Write_Mul_Sectors
                  0x00dadc                  _SD_Write_Sector
                  0x00f9e8                  _SPI1_Init
                  0x00fa10                  _SPI1_Send
                  0x00f9fc                  _SPI2_Init
                  0x00fa2a                  _SPI2_Send
                  0x008ca4                  _Scoreboard
                  0x009020                  _Scrolling_Arrows
                  0x005352                  _Scrolling_Arrows_On_Detection
                  0x00ec6a                  _Sensor_Calibration
                  0x001c50                  _SetHSPWMDeadTime1
                  0x001c48                  _SetHSPWMDutyCycle1
                  0x00c662                  _Set_All_Pods
                  0x00c694                  _Set_All_Rings
                  0x00eefa                  _Set_IR_PWM
                  0x008d94                  _Set_Scrolling_Text
                  0x008e10                  _Set_Text
                  0x00f450                  _Shift_Grid_Left
                  0x00f412                  _Shift_Grid_Right
                  0x00f1fe                  _TLC5955_Default_Init
                  0x00f124                  _TLC5955_Init
                  0x00f236                  _TLC5955_Update
                  0x00f286                  _TLC5955_Write_GS
                  0x00f96a                  _TMR1_Init
                  0x00f986                  _TMR2_Init
                  0x00f994                  _TMR3_Init
                  0x00f9b0                  _TMR4_Init
                  0x00f9cc                  _TMR5_Init
                  0x00fab6                  _Time_Check
                  0x0044f6                  _UART_CMD
                  0x00d6e6                  _UART_Execute_Command
                  0x00f792                  _UART_Init
                  0x00f82c                  _UART_Rx
                  0x00f7e8                  _UART_Set_Baudrate
                  0x00f812                  _UART_Tx
                  0x00eda4                  _Update_All_Sensors
                  0x00bd80                  _Update_Channel
                  0x009bc0                  _Update_LCD_Menu
                  0x00c10e                  _Update_Ring
                  0x00917c                  _Update_Text
                  0x00f262                  _Write_Single_Bit
                  0x0013e8                  __DefaultInterrupt
                  0x00e914                  __IC1Interrupt
                  0x00e900                  __INT0Interrupt
                  0x00e760                  __T1Interrupt
                  0x00e794                  __T3Interrupt
                  0x00e7ce                  __T4Interrupt
                  0x00e7e4                  __T5Interrupt
                  0x00e818                  __U1RXInterrupt
                  0x001548                  ___addsf3
                  0x001332                  ___delay32
                  0x0017b8                  ___divdi3
                  0x0014ba                  ___divsf3
                  0x00153e                  ___eqsf2
                  0x00166e                  ___fixsfsi
                  0x00147e                  ___fixunssfsi
                  0x001940                  ___floatdisf
                  0x0014b4                  ___floatsisf
                  0x0018b8                  ___floatundisf
                  0x00147a                  ___floatunsisf
                  0x0016b0                  ___gesf2
                  0x0016b0                  ___gtsf2
                  0x00153e                  ___lesf2
                  0x00153e                  ___ltsf2
                  0x0017ea                  ___moddi3
                  0x001b92                  ___muldi3
                  0x001b86                  ___mulp32eds3
                  0x001b86                  ___mulp32peds3
                  0x001602                  ___mulsf3
                  0x001b86                  ___mulsi3
                  0x001542                  ___nesf2
                  0x001546                  ___subsf3
                  0x00179a                  ___udivdi3
                  0x00171c                  ___udivmoddi3
                  0x001454                  ___udivsi3
                  0x0017ac                  ___umoddi3
                  0x001474                  ___umodsi3
                  0x001be8                  ___umuldi3
                  0x00134e                  __data_init
                  0x00134e                  __data_init_extended
                  0x001970                  __fPropagateNaN
                  0x001982                  __fbopExit
                  0x00198a                  __fbopReturnNaN
                  0x0019dc                  __fcompare
                  0x001ae8                  __fmodrem
                  0x001990                  __fpack
                  0x001916                  __funpack
                  0x001960                  __funpack2
                  0x001c6c                  __printf_0
                  0x001c6c                  __printf_cdnopsuxX
                  0x001c6c                  __printf_cdnopuxX
                  0x001c6c                  __printf_s
                  0x001326                  __psv_init
                  0x001300                  __resetPRI
                  0x001a12                  __sincosf
                  0x001d18                  __sprintf_cdnopuxX
                  0x001d42                  __vfprintf_0
                  0x001d42                  __vfprintf_cdnopsuxX
                  0x001d42                  __vfprintf_cdnopuxX
                  0x001d42                  __vfprintf_s
                  0x001ae4                  _fmodf
                  0x004b6a                  _font_5x7
                  0x001c7a                  _fputs
                  0x00e602                  _main
                  0x001c5a                  _memcpy
                  0x001cea                  _memset
                  0x001cfc                  _putchar
                  0x001c9a                  _puts
                  0x00166a                  _sinf
                  0x001cb2                  _strcmp
                  0x001d06                  _strlen
                  0x001cc4                  _strncmp

Memory Configuration

Name             Origin             Length             Attributes
data             0x001000           0x008000           a !xr
reset            0x000000           0x000004  
ivt              0x000004           0x0001fc  
j_ivt            0x001000           0x000300  
program          0x001300           0x029cea           xr
FICD             0x02aff0           0x000002  
FPOR             0x02aff2           0x000002  
FWDT             0x02aff4           0x000002  
FOSC             0x02aff6           0x000002  
FOSCSEL          0x02aff8           0x000002  
FGS              0x02affa           0x000002  
FUID0            0x800ff8           0x000002  
FUID1            0x800ffa           0x000002  
FUID2            0x800ffc           0x000002  
FUID3            0x800ffe           0x000002  
*default*        0x000000           0xffffffff  

Linker script and memory map

LOAD 74HC595_Setup.o
LOAD ADC_Setup.o
LOAD BPT.o
LOAD BT_Functions.o
LOAD Delay_Setup.o
LOAD EEPROM_Setup.o
LOAD FAT32_Setup.o
LOAD Grid_Setup.o
LOAD Interrupts.o
LOAD IR_Controls.o
LOAD IR_Sensors.o
LOAD LCD_Setup.o
LOAD LED_Control.o
LOAD LED_Graphics.o
LOAD PORT_Setup.o
LOAD PWM_Setup.o
LOAD RS232_Setup.o
LOAD SD_Setup.o
LOAD SPI_Setup.o
LOAD Timers_Setup.o
LOAD TLC5955_Setup.o
LOAD LCD_Control.o
LOAD MSGEQ7_Setup.o
LOAD VU_Control.o
LOAD File_Handling.o
LOAD c:/program files (x86)/microchip/xc16/v1.20/bin/bin/../../lib/PIC24E\libp24EP256MC206-coff.a
                    0x1000                  __JIVT_BASE = 0x1000
                    0x1002                  J__OscillatorFail = 0x1002
                    0x1006                  J__AddressError = 0x1006
                    0x100a                  J__HardTrapError = 0x100a
                    0x100e                  J__StackError = 0x100e
                    0x1012                  J__MathError = 0x1012
                    0x1016                  J__DMACError = 0x1016
                    0x101a                  J__SoftTrapError = 0x101a
                    0x101e                  J__ReservedTrap7 = 0x101e
                    0x1022                  J__INT0Interrupt = 0x1022
                    0x1026                  J__IC1Interrupt = 0x1026
                    0x102a                  J__OC1Interrupt = 0x102a
                    0x102e                  J__T1Interrupt = 0x102e
                    0x1032                  J__DMA0Interrupt = 0x1032
                    0x1036                  J__IC2Interrupt = 0x1036
                    0x103a                  J__OC2Interrupt = 0x103a
                    0x103e                  J__T2Interrupt = 0x103e
                    0x1042                  J__T3Interrupt = 0x1042
                    0x1046                  J__SPI1ErrInterrupt = 0x1046
                    0x104a                  J__SPI1Interrupt = 0x104a
                    0x104e                  J__U1RXInterrupt = 0x104e
                    0x1052                  J__U1TXInterrupt = 0x1052
                    0x1056                  J__AD1Interrupt = 0x1056
                    0x105a                  J__DMA1Interrupt = 0x105a
                    0x105e                  J__Interrupt15 = 0x105e
                    0x1062                  J__SI2C1Interrupt = 0x1062
                    0x1066                  J__MI2C1Interrupt = 0x1066
                    0x106a                  J__CM1Interrupt = 0x106a
                    0x106e                  J__CNInterrupt = 0x106e
                    0x1072                  J__INT1Interrupt = 0x1072
                    0x1076                  J__Interrupt21 = 0x1076
                    0x107a                  J__Interrupt22 = 0x107a
                    0x107e                  J__Interrupt23 = 0x107e
                    0x1082                  J__DMA2Interrupt = 0x1082
                    0x1086                  J__OC3Interrupt = 0x1086
                    0x108a                  J__OC4Interrupt = 0x108a
                    0x108e                  J__T4Interrupt = 0x108e
                    0x1092                  J__T5Interrupt = 0x1092
                    0x1096                  J__INT2Interrupt = 0x1096
                    0x109a                  J__U2RXInterrupt = 0x109a
                    0x109e                  J__U2TXInterrupt = 0x109e
                    0x10a2                  J__SPI2ErrInterrupt = 0x10a2
                    0x10a6                  J__SPI2Interrupt = 0x10a6
                    0x10aa                  J__Interrupt34 = 0x10aa
                    0x10ae                  J__Interrupt35 = 0x10ae
                    0x10b2                  J__DMA3Interrupt = 0x10b2
                    0x10b6                  J__IC3Interrupt = 0x10b6
                    0x10ba                  J__IC4Interrupt = 0x10ba
                    0x10be                  J__Interrupt39 = 0x10be
                    0x10c2                  J__Interrupt40 = 0x10c2
                    0x10c6                  J__Interrupt41 = 0x10c6
                    0x10ca                  J__Interrupt42 = 0x10ca
                    0x10ce                  J__Interrupt43 = 0x10ce
                    0x10d2                  J__Interrupt44 = 0x10d2
                    0x10d6                  J__Interrupt45 = 0x10d6
                    0x10da                  J__Interrupt46 = 0x10da
                    0x10de                  J__Interrupt47 = 0x10de
                    0x10e2                  J__Interrupt48 = 0x10e2
                    0x10e6                  J__SI2C2Interrupt = 0x10e6
                    0x10ea                  J__MI2C2Interrupt = 0x10ea
                    0x10ee                  J__Interrupt51 = 0x10ee
                    0x10f2                  J__Interrupt52 = 0x10f2
                    0x10f6                  J__Interrupt53 = 0x10f6
                    0x10fa                  J__Interrupt54 = 0x10fa
                    0x10fe                  J__Interrupt55 = 0x10fe
                    0x1102                  J__Interrupt56 = 0x1102
                    0x1106                  J__PWMSpEventMatchInterrupt = 0x1106
                    0x110a                  J__QEI1Interrupt = 0x110a
                    0x110e                  J__Interrupt59 = 0x110e
                    0x1112                  J__Interrupt60 = 0x1112
                    0x1116                  J__Interrupt61 = 0x1116
                    0x111a                  J__Interrupt62 = 0x111a
                    0x111e                  J__Interrupt63 = 0x111e
                    0x1122                  J__Interrupt64 = 0x1122
                    0x1126                  J__U1ErrInterrupt = 0x1126
                    0x112a                  J__U2ErrInterrupt = 0x112a
                    0x112e                  J__CRCInterrupt = 0x112e
                    0x1132                  J__Interrupt68 = 0x1132
                    0x1136                  J__Interrupt69 = 0x1136
                    0x113a                  J__Interrupt70 = 0x113a
                    0x113e                  J__Interrupt71 = 0x113e
                    0x1142                  J__Interrupt72 = 0x1142
                    0x1146                  J__Interrupt73 = 0x1146
                    0x114a                  J__Interrupt74 = 0x114a
                    0x114e                  J__Interrupt75 = 0x114e
                    0x1152                  J__Interrupt76 = 0x1152
                    0x1156                  J__CTMUInterrupt = 0x1156
                    0x115a                  J__Interrupt78 = 0x115a
                    0x115e                  J__Interrupt79 = 0x115e
                    0x1162                  J__Interrupt80 = 0x1162
                    0x1166                  J__Interrupt81 = 0x1166
                    0x116a                  J__Interrupt82 = 0x116a
                    0x116e                  J__Interrupt83 = 0x116e
                    0x1172                  J__Interrupt84 = 0x1172
                    0x1176                  J__Interrupt85 = 0x1176
                    0x117a                  J__Interrupt86 = 0x117a
                    0x117e                  J__Interrupt87 = 0x117e
                    0x1182                  J__Interrupt88 = 0x1182
                    0x1186                  J__Interrupt89 = 0x1186
                    0x118a                  J__Interrupt90 = 0x118a
                    0x118e                  J__Interrupt91 = 0x118e
                    0x1192                  J__Interrupt92 = 0x1192
                    0x1196                  J__Interrupt93 = 0x1196
                    0x119a                  J__PWM1Interrupt = 0x119a
                    0x119e                  J__PWM2Interrupt = 0x119e
                    0x11a2                  J__PWM3Interrupt = 0x11a2
                    0x11a6                  J__Interrupt97 = 0x11a6
                    0x11aa                  J__Interrupt98 = 0x11aa
                    0x11ae                  J__Interrupt99 = 0x11ae
                    0x11b2                  J__Interrupt100 = 0x11b2
                    0x11b6                  J__Interrupt101 = 0x11b6
                    0x11ba                  J__Interrupt102 = 0x11ba
                    0x11be                  J__Interrupt103 = 0x11be
                    0x11c2                  J__Interrupt104 = 0x11c2
                    0x11c6                  J__Interrupt105 = 0x11c6
                    0x11ca                  J__Interrupt106 = 0x11ca
                    0x11ce                  J__Interrupt107 = 0x11ce
                    0x11d2                  J__Interrupt108 = 0x11d2
                    0x11d6                  J__Interrupt109 = 0x11d6
                    0x11da                  J__Interrupt110 = 0x11da
                    0x11de                  J__Interrupt111 = 0x11de
                    0x11e2                  J__Interrupt112 = 0x11e2
                    0x11e6                  J__Interrupt113 = 0x11e6
                    0x11ea                  J__Interrupt114 = 0x11ea
                    0x11ee                  J__Interrupt115 = 0x11ee
                    0x11f2                  J__Interrupt116 = 0x11f2
                    0x11f6                  J__Interrupt117 = 0x11f6
                    0x11fa                  J__Interrupt118 = 0x11fa
                    0x11fe                  J__Interrupt119 = 0x11fe
                    0x1202                  J__Interrupt120 = 0x1202
                    0x1206                  J__Interrupt121 = 0x1206
                    0x120a                  J__Interrupt122 = 0x120a
                    0x120e                  J__Interrupt123 = 0x120e
                    0x1212                  J__Interrupt124 = 0x1212
                    0x1216                  J__Interrupt125 = 0x1216
                    0x121a                  J__Interrupt126 = 0x121a
                    0x121e                  J__Interrupt127 = 0x121e
                    0x1222                  J__Interrupt128 = 0x1222
                    0x1226                  J__Interrupt129 = 0x1226
                    0x122a                  J__Interrupt130 = 0x122a
                    0x122e                  J__Interrupt131 = 0x122e
                    0x1232                  J__Interrupt132 = 0x1232
                    0x1236                  J__Interrupt133 = 0x1236
                    0x123a                  J__Interrupt134 = 0x123a
                    0x123e                  J__Interrupt135 = 0x123e
                    0x1242                  J__Interrupt136 = 0x1242
                    0x1246                  J__Interrupt137 = 0x1246
                    0x124a                  J__Interrupt138 = 0x124a
                    0x124e                  J__Interrupt139 = 0x124e
                    0x1252                  J__Interrupt140 = 0x1252
                    0x1256                  J__Interrupt141 = 0x1256
                    0x125a                  J__ICDInterrupt = 0x125a
                    0x125e                  J__JTAGInterrupt = 0x125e
                    0x1262                  J__Interrupt144 = 0x1262
                    0x1266                  J__PTGSTEPInterrupt = 0x1266
                    0x126a                  J__PTGWDTInterrupt = 0x126a
                    0x126e                  J__PTG0Interrupt = 0x126e
                    0x1272                  J__PTG1Interrupt = 0x1272
                    0x1276                  J__PTG2Interrupt = 0x1276
                    0x127a                  J__PTG3Interrupt = 0x127a
                    0x2aff0                  __FICD = 0x2aff0
                    0x2aff2                  __FPOR = 0x2aff2
                    0x2aff4                  __FWDT = 0x2aff4
                    0x2aff6                  __FOSC = 0x2aff6
                    0x2aff8                  __FOSCSEL = 0x2aff8
                    0x2affa                  __FGS = 0x2affa
                    0x800ff8                  __FUID0 = 0x800ff8
                    0x800ffa                  __FUID1 = 0x800ffa
                    0x800ffc                  __FUID2 = 0x800ffc
                    0x800ffe                  __FUID3 = 0x800ffe
                    0x0004                  __IVT_BASE = 0x4
                    0x1000                  __DATA_BASE = 0x1000
                    0x8000                  __DATA_LENGTH = 0x8000
                    0x0200                  __CODE_BASE = 0x200
                    0x2adec                  __CODE_LENGTH = 0x2adec

.reset            0x000000          0x4
                  0x000000          0x2 SHORT 0x1300 ABSOLUTE (__reset)
                  0x000001          0x2 SHORT 0x4
                  0x000002          0x2 SHORT 0x0 ((ABSOLUTE (__reset) >> 0x10) & 0x7f)
                  0x000003          0x2 SHORT 0x0

.j_ivt            0x001000        0x27e
                  0x001000          0x2 SHORT 0x2
                  0x001001          0x2 SHORT 0x0
                  0x001002          0x2 SHORT 0x13e8 DEFINED (__OscillatorFail)?ABSOLUTE (__OscillatorFail):ABSOLUTE (__DefaultInterrupt)
                  0x001003          0x2 SHORT 0x4
                  0x001004          0x2 SHORT 0x0 ((DEFINED (__OscillatorFail)?ABSOLUTE (__OscillatorFail):ABSOLUTE (__DefaultInterrupt) >> 0x10) & 0x7f)
                  0x001005          0x2 SHORT 0x0
                  0x001006          0x2 SHORT 0x13e8 DEFINED (__AddressError)?ABSOLUTE (__AddressError):ABSOLUTE (__DefaultInterrupt)
                  0x001007          0x2 SHORT 0x4
                  0x001008          0x2 SHORT 0x0 ((DEFINED (__AddressError)?ABSOLUTE (__AddressError):ABSOLUTE (__DefaultInterrupt) >> 0x10) & 0x7f)
                  0x001009          0x2 SHORT 0x0
                  0x00100a          0x2 SHORT 0x13e8 DEFINED (__HardTrapError)?ABSOLUTE (__HardTrapError):ABSOLUTE (__DefaultInterrupt)
                  0x00100b          0x2 SHORT 0x4
                  0x00100c          0x2 SHORT 0x0 ((DEFINED (__HardTrapError)?ABSOLUTE (__HardTrapError):ABSOLUTE (__DefaultInterrupt) >> 0x10) & 0x7f)
                  0x00100d          0x2 SHORT 0x0
                  0x00100e          0x2 SHORT 0x13e8 DEFINED (__StackError)?ABSOLUTE (__StackError):ABSOLUTE (__DefaultInterrupt)
                  0x00100f          0x2 SHORT 0x4
                  0x001010          0x2 SHORT 0x0 ((DEFINED (__StackError)?ABSOLUTE (__StackError):ABSOLUTE (__DefaultInterrupt) >> 0x10) & 0x7f)
                  0x001011          0x2 SHORT 0x0
                  0x001012          0x2 SHORT 0x13e8 DEFINED (__MathError)?ABSOLUTE (__MathError):ABSOLUTE (__DefaultInterrupt)
                  0x001013          0x2 SHORT 0x4
                  0x001014          0x2 SHORT 0x0 ((DEFINED (__MathError)?ABSOLUTE (__MathError):ABSOLUTE (__DefaultInterrupt) >> 0x10) & 0x7f)
                  0x001015          0x2 SHORT 0x0
                  0x001016          0x2 SHORT 0x13e8 DEFINED (__DMACError)?ABSOLUTE (__DMACError):ABSOLUTE (__DefaultInterrupt)
                  0x001017          0x2 SHORT 0x4
                  0x001018          0x2 SHORT 0x0 ((DEFINED (__DMACError)?ABSOLUTE (__DMACError):ABSOLUTE (__DefaultInterrupt) >> 0x10) & 0x7f)
                  0x001019          0x2 SHORT 0x0
                  0x00101a          0x2 SHORT 0x13e8 DEFINED (__SoftTrapError)?ABSOLUTE (__SoftTrapError):ABSOLUTE (__DefaultInterrupt)
                  0x00101b          0x2 SHORT 0x4
                  0x00101c          0x2 SHORT 0x0 ((DEFINED (__SoftTrapError)?ABSOLUTE (__SoftTrapError):ABSOLUTE (__DefaultInterrupt) >> 0x10) & 0x7f)
                  0x00101d          0x2 SHORT 0x0
                  0x00101e          0x2 SHORT 0x13e8 DEFINED (__ReservedTrap7)?ABSOLUTE (__ReservedTrap7):ABSOLUTE (__DefaultInterrupt)
                  0x00101f          0x2 SHORT 0x4
                  0x001020          0x2 SHORT 0x0 ((DEFINED (__ReservedTrap7)?ABSOLUTE (__ReservedTrap7):ABSOLUTE (__DefaultInterrupt) >> 0x10) & 0x7f)
                  0x001021          0x2 SHORT 0x0
                  0x001022          0x2 SHORT 0xe900 DEFINED (__INT0Interrupt)?ABSOLUTE (__INT0Interrupt):ABSOLUTE (__DefaultInterrupt)
                  0x001023          0x2 SHORT 0x4
                  0x001024          0x2 SHORT 0x0 ((DEFINED (__INT0Interrupt)?ABSOLUTE (__INT0Interrupt):ABSOLUTE (__DefaultInterrupt) >> 0x10) & 0x7f)
                  0x001025          0x2 SHORT 0x0
                  0x001026          0x2 SHORT 0xe914 DEFINED (__IC1Interrupt)?ABSOLUTE (__IC1Interrupt):ABSOLUTE (__DefaultInterrupt)
                  0x001027          0x2 SHORT 0x4
                  0x001028          0x2 SHORT 0x0 ((DEFINED (__IC1Interrupt)?ABSOLUTE (__IC1Interrupt):ABSOLUTE (__DefaultInterrupt) >> 0x10) & 0x7f)
                  0x001029          0x2 SHORT 0x0
                  0x00102a          0x2 SHORT 0x13e8 DEFINED (__OC1Interrupt)?ABSOLUTE (__OC1Interrupt):ABSOLUTE (__DefaultInterrupt)
                  0x00102b          0x2 SHORT 0x4
                  0x00102c          0x2 SHORT 0x0 ((DEFINED (__OC1Interrupt)?ABSOLUTE (__OC1Interrupt):ABSOLUTE (__DefaultInterrupt) >> 0x10) & 0x7f)
                  0x00102d          0x2 SHORT 0x0
                  0x00102e          0x2 SHORT 0xe760 DEFINED (__T1Interrupt)?ABSOLUTE (__T1Interrupt):ABSOLUTE (__DefaultInterrupt)
                  0x00102f          0x2 SHORT 0x4
                  0x001030          0x2 SHORT 0x0 ((DEFINED (__T1Interrupt)?ABSOLUTE (__T1Interrupt):ABSOLUTE (__DefaultInterrupt) >> 0x10) & 0x7f)
                  0x001031          0x2 SHORT 0x0
                  0x001032          0x2 SHORT 0x13e8 DEFINED (__DMA0Interrupt)?ABSOLUTE (__DMA0Interrupt):ABSOLUTE (__DefaultInterrupt)
                  0x001033          0x2 SHORT 0x4
                  0x001034          0x2 SHORT 0x0 ((DEFINED (__DMA0Interrupt)?ABSOLUTE (__DMA0Interrupt):ABSOLUTE (__DefaultInterrupt) >> 0x10) & 0x7f)
                  0x001035          0x2 SHORT 0x0
                  0x001036          0x2 SHORT 0x13e8 DEFINED (__IC2Interrupt)?ABSOLUTE (__IC2Interrupt):ABSOLUTE (__DefaultInterrupt)
                  0x001037          0x2 SHORT 0x4
                  0x001038          0x2 SHORT 0x0 ((DEFINED (__IC2Interrupt)?ABSOLUTE (__IC2Interrupt):ABSOLUTE (__DefaultInterrupt) >> 0x10) & 0x7f)
                  0x001039          0x2 SHORT 0x0
                  0x00103a          0x2 SHORT 0x13e8 DEFINED (__OC2Interrupt)?ABSOLUTE (__OC2Interrupt):ABSOLUTE (__DefaultInterrupt)
                  0x00103b          0x2 SHORT 0x4
                  0x00103c          0x2 SHORT 0x0 ((DEFINED (__OC2Interrupt)?ABSOLUTE (__OC2Interrupt):ABSOLUTE (__DefaultInterrupt) >> 0x10) & 0x7f)
                  0x00103d          0x2 SHORT 0x0
                  0x00103e          0x2 SHORT 0x13e8 DEFINED (__T2Interrupt)?ABSOLUTE (__T2Interrupt):ABSOLUTE (__DefaultInterrupt)
                  0x00103f          0x2 SHORT 0x4
                  0x001040          0x2 SHORT 0x0 ((DEFINED (__T2Interrupt)?ABSOLUTE (__T2Interrupt):ABSOLUTE (__DefaultInterrupt) >> 0x10) & 0x7f)
                  0x001041          0x2 SHORT 0x0
                  0x001042          0x2 SHORT 0xe794 DEFINED (__T3Interrupt)?ABSOLUTE (__T3Interrupt):ABSOLUTE (__DefaultInterrupt)
                  0x001043          0x2 SHORT 0x4
                  0x001044          0x2 SHORT 0x0 ((DEFINED (__T3Interrupt)?ABSOLUTE (__T3Interrupt):ABSOLUTE (__DefaultInterrupt) >> 0x10) & 0x7f)
                  0x001045          0x2 SHORT 0x0
                  0x001046          0x2 SHORT 0x13e8 DEFINED (__SPI1ErrInterrupt)?ABSOLUTE (__SPI1ErrInterrupt):ABSOLUTE (__DefaultInterrupt)
                  0x001047          0x2 SHORT 0x4
                  0x001048          0x2 SHORT 0x0 ((DEFINED (__SPI1ErrInterrupt)?ABSOLUTE (__SPI1ErrInterrupt):ABSOLUTE (__DefaultInterrupt) >> 0x10) & 0x7f)
                  0x001049          0x2 SHORT 0x0
                  0x00104a          0x2 SHORT 0x13e8 DEFINED (__SPI1Interrupt)?ABSOLUTE (__SPI1Interrupt):ABSOLUTE (__DefaultInterrupt)
                  0x00104b          0x2 SHORT 0x4
                  0x00104c          0x2 SHORT 0x0 ((DEFINED (__SPI1Interrupt)?ABSOLUTE (__SPI1Interrupt):ABSOLUTE (__DefaultInterrupt) >> 0x10) & 0x7f)
                  0x00104d          0x2 SHORT 0x0
                  0x00104e          0x2 SHORT 0xe818 DEFINED (__U1RXInterrupt)?ABSOLUTE (__U1RXInterrupt):ABSOLUTE (__DefaultInterrupt)
                  0x00104f          0x2 SHORT 0x4
                  0x001050          0x2 SHORT 0x0 ((DEFINED (__U1RXInterrupt)?ABSOLUTE (__U1RXInterrupt):ABSOLUTE (__DefaultInterrupt) >> 0x10) & 0x7f)
                  0x001051          0x2 SHORT 0x0
                  0x001052          0x2 SHORT 0x13e8 DEFINED (__U1TXInterrupt)?ABSOLUTE (__U1TXInterrupt):ABSOLUTE (__DefaultInterrupt)
                  0x001053          0x2 SHORT 0x4
                  0x001054          0x2 SHORT 0x0 ((DEFINED (__U1TXInterrupt)?ABSOLUTE (__U1TXInterrupt):ABSOLUTE (__DefaultInterrupt) >> 0x10) & 0x7f)
                  0x001055          0x2 SHORT 0x0
                  0x001056          0x2 SHORT 0x13e8 DEFINED (__AD1Interrupt)?ABSOLUTE (__AD1Interrupt):ABSOLUTE (__DefaultInterrupt)
                  0x001057          0x2 SHORT 0x4
                  0x001058          0x2 SHORT 0x0 ((DEFINED (__AD1Interrupt)?ABSOLUTE (__AD1Interrupt):ABSOLUTE (__DefaultInterrupt) >> 0x10) & 0x7f)
                  0x001059          0x2 SHORT 0x0
                  0x00105a          0x2 SHORT 0x13e8 DEFINED (__DMA1Interrupt)?ABSOLUTE (__DMA1Interrupt):ABSOLUTE (__DefaultInterrupt)
                  0x00105b          0x2 SHORT 0x4
                  0x00105c          0x2 SHORT 0x0 ((DEFINED (__DMA1Interrupt)?ABSOLUTE (__DMA1Interrupt):ABSOLUTE (__DefaultInterrupt) >> 0x10) & 0x7f)
                  0x00105d          0x2 SHORT 0x0
                  0x00105e          0x2 SHORT 0x13e8 DEFINED (__Interrupt15)?ABSOLUTE (__Interrupt15):ABSOLUTE (__DefaultInterrupt)
                  0x00105f          0x2 SHORT 0x4
                  0x001060          0x2 SHORT 0x0 ((DEFINED (__Interrupt15)?ABSOLUTE (__Interrupt15):ABSOLUTE (__DefaultInterrupt) >> 0x10) & 0x7f)
                  0x001061          0x2 SHORT 0x0
                  0x001062          0x2 SHORT 0x13e8 DEFINED (__SI2C1Interrupt)?ABSOLUTE (__SI2C1Interrupt):ABSOLUTE (__DefaultInterrupt)
                  0x001063          0x2 SHORT 0x4
                  0x001064          0x2 SHORT 0x0 ((DEFINED (__SI2C1Interrupt)?ABSOLUTE (__SI2C1Interrupt):ABSOLUTE (__DefaultInterrupt) >> 0x10) & 0x7f)
                  0x001065          0x2 SHORT 0x0
                  0x001066          0x2 SHORT 0x13e8 DEFINED (__MI2C1Interrupt)?ABSOLUTE (__MI2C1Interrupt):ABSOLUTE (__DefaultInterrupt)
                  0x001067          0x2 SHORT 0x4
                  0x001068          0x2 SHORT 0x0 ((DEFINED (__MI2C1Interrupt)?ABSOLUTE (__MI2C1Interrupt):ABSOLUTE (__DefaultInterrupt) >> 0x10) & 0x7f)
                  0x001069          0x2 SHORT 0x0
                  0x00106a          0x2 SHORT 0x13e8 DEFINED (__CM1Interrupt)?ABSOLUTE (__CM1Interrupt):ABSOLUTE (__DefaultInterrupt)
                  0x00106b          0x2 SHORT 0x4
                  0x00106c          0x2 SHORT 0x0 ((DEFINED (__CM1Interrupt)?ABSOLUTE (__CM1Interrupt):ABSOLUTE (__DefaultInterrupt) >> 0x10) & 0x7f)
                  0x00106d          0x2 SHORT 0x0
                  0x00106e          0x2 SHORT 0x13e8 DEFINED (__CNInterrupt)?ABSOLUTE (__CNInterrupt):ABSOLUTE (__DefaultInterrupt)
                  0x00106f          0x2 SHORT 0x4
                  0x001070          0x2 SHORT 0x0 ((DEFINED (__CNInterrupt)?ABSOLUTE (__CNInterrupt):ABSOLUTE (__DefaultInterrupt) >> 0x10) & 0x7f)
                  0x001071          0x2 SHORT 0x0
                  0x001072          0x2 SHORT 0x13e8 DEFINED (__INT1Interrupt)?ABSOLUTE (__INT1Interrupt):ABSOLUTE (__DefaultInterrupt)
                  0x001073          0x2 SHORT 0x4
                  0x001074          0x2 SHORT 0x0 ((DEFINED (__INT1Interrupt)?ABSOLUTE (__INT1Interrupt):ABSOLUTE (__DefaultInterrupt) >> 0x10) & 0x7f)
                  0x001075          0x2 SHORT 0x0
                  0x001076          0x2 SHORT 0x13e8 DEFINED (__Interrupt21)?ABSOLUTE (__Interrupt21):ABSOLUTE (__DefaultInterrupt)
                  0x001077          0x2 SHORT 0x4
                  0x001078          0x2 SHORT 0x0 ((DEFINED (__Interrupt21)?ABSOLUTE (__Interrupt21):ABSOLUTE (__DefaultInterrupt) >> 0x10) & 0x7f)
                  0x001079          0x2 SHORT 0x0
                  0x00107a          0x2 SHORT 0x13e8 DEFINED (__Interrupt22)?ABSOLUTE (__Interrupt22):ABSOLUTE (__DefaultInterrupt)
                  0x00107b          0x2 SHORT 0x4
                  0x00107c          0x2 SHORT 0x0 ((DEFINED (__Interrupt22)?ABSOLUTE (__Interrupt22):ABSOLUTE (__DefaultInterrupt) >> 0x10) & 0x7f)
                  0x00107d          0x2 SHORT 0x0
                  0x00107e          0x2 SHORT 0x13e8 DEFINED (__Interrupt23)?ABSOLUTE (__Interrupt23):ABSOLUTE (__DefaultInterrupt)
                  0x00107f          0x2 SHORT 0x4
                  0x001080          0x2 SHORT 0x0 ((DEFINED (__Interrupt23)?ABSOLUTE (__Interrupt23):ABSOLUTE (__DefaultInterrupt) >> 0x10) & 0x7f)
                  0x001081          0x2 SHORT 0x0
                  0x001082          0x2 SHORT 0x13e8 DEFINED (__DMA2Interrupt)?ABSOLUTE (__DMA2Interrupt):ABSOLUTE (__DefaultInterrupt)
                  0x001083          0x2 SHORT 0x4
                  0x001084          0x2 SHORT 0x0 ((DEFINED (__DMA2Interrupt)?ABSOLUTE (__DMA2Interrupt):ABSOLUTE (__DefaultInterrupt) >> 0x10) & 0x7f)
                  0x001085          0x2 SHORT 0x0
                  0x001086          0x2 SHORT 0x13e8 DEFINED (__OC3Interrupt)?ABSOLUTE (__OC3Interrupt):ABSOLUTE (__DefaultInterrupt)
                  0x001087          0x2 SHORT 0x4
                  0x001088          0x2 SHORT 0x0 ((DEFINED (__OC3Interrupt)?ABSOLUTE (__OC3Interrupt):ABSOLUTE (__DefaultInterrupt) >> 0x10) & 0x7f)
                  0x001089          0x2 SHORT 0x0
                  0x00108a          0x2 SHORT 0x13e8 DEFINED (__OC4Interrupt)?ABSOLUTE (__OC4Interrupt):ABSOLUTE (__DefaultInterrupt)
                  0x00108b          0x2 SHORT 0x4
                  0x00108c          0x2 SHORT 0x0 ((DEFINED (__OC4Interrupt)?ABSOLUTE (__OC4Interrupt):ABSOLUTE (__DefaultInterrupt) >> 0x10) & 0x7f)
                  0x00108d          0x2 SHORT 0x0
                  0x00108e          0x2 SHORT 0xe7ce DEFINED (__T4Interrupt)?ABSOLUTE (__T4Interrupt):ABSOLUTE (__DefaultInterrupt)
                  0x00108f          0x2 SHORT 0x4
                  0x001090          0x2 SHORT 0x0 ((DEFINED (__T4Interrupt)?ABSOLUTE (__T4Interrupt):ABSOLUTE (__DefaultInterrupt) >> 0x10) & 0x7f)
                  0x001091          0x2 SHORT 0x0
                  0x001092          0x2 SHORT 0xe7e4 DEFINED (__T5Interrupt)?ABSOLUTE (__T5Interrupt):ABSOLUTE (__DefaultInterrupt)
                  0x001093          0x2 SHORT 0x4
                  0x001094          0x2 SHORT 0x0 ((DEFINED (__T5Interrupt)?ABSOLUTE (__T5Interrupt):ABSOLUTE (__DefaultInterrupt) >> 0x10) & 0x7f)
                  0x001095          0x2 SHORT 0x0
                  0x001096          0x2 SHORT 0x13e8 DEFINED (__INT2Interrupt)?ABSOLUTE (__INT2Interrupt):ABSOLUTE (__DefaultInterrupt)
                  0x001097          0x2 SHORT 0x4
                  0x001098          0x2 SHORT 0x0 ((DEFINED (__INT2Interrupt)?ABSOLUTE (__INT2Interrupt):ABSOLUTE (__DefaultInterrupt) >> 0x10) & 0x7f)
                  0x001099          0x2 SHORT 0x0
                  0x00109a          0x2 SHORT 0x13e8 DEFINED (__U2RXInterrupt)?ABSOLUTE (__U2RXInterrupt):ABSOLUTE (__DefaultInterrupt)
                  0x00109b          0x2 SHORT 0x4
                  0x00109c          0x2 SHORT 0x0 ((DEFINED (__U2RXInterrupt)?ABSOLUTE (__U2RXInterrupt):ABSOLUTE (__DefaultInterrupt) >> 0x10) & 0x7f)
                  0x00109d          0x2 SHORT 0x0
                  0x00109e          0x2 SHORT 0x13e8 DEFINED (__U2TXInterrupt)?ABSOLUTE (__U2TXInterrupt):ABSOLUTE (__DefaultInterrupt)
                  0x00109f          0x2 SHORT 0x4
                  0x0010a0          0x2 SHORT 0x0 ((DEFINED (__U2TXInterrupt)?ABSOLUTE (__U2TXInterrupt):ABSOLUTE (__DefaultInterrupt) >> 0x10) & 0x7f)
                  0x0010a1          0x2 SHORT 0x0
                  0x0010a2          0x2 SHORT 0x13e8 DEFINED (__SPI2ErrInterrupt)?ABSOLUTE (__SPI2ErrInterrupt):ABSOLUTE (__DefaultInterrupt)
                  0x0010a3          0x2 SHORT 0x4
                  0x0010a4          0x2 SHORT 0x0 ((DEFINED (__SPI2ErrInterrupt)?ABSOLUTE (__SPI2ErrInterrupt):ABSOLUTE (__DefaultInterrupt) >> 0x10) & 0x7f)
                  0x0010a5          0x2 SHORT 0x0
                  0x0010a6          0x2 SHORT 0x13e8 DEFINED (__SPI2Interrupt)?ABSOLUTE (__SPI2Interrupt):ABSOLUTE (__DefaultInterrupt)
                  0x0010a7          0x2 SHORT 0x4
                  0x0010a8          0x2 SHORT 0x0 ((DEFINED (__SPI2Interrupt)?ABSOLUTE (__SPI2Interrupt):ABSOLUTE (__DefaultInterrupt) >> 0x10) & 0x7f)
                  0x0010a9          0x2 SHORT 0x0
                  0x0010aa          0x2 SHORT 0x13e8 DEFINED (__Interrupt34)?ABSOLUTE (__Interrupt34):ABSOLUTE (__DefaultInterrupt)
                  0x0010ab          0x2 SHORT 0x4
                  0x0010ac          0x2 SHORT 0x0 ((DEFINED (__Interrupt34)?ABSOLUTE (__Interrupt34):ABSOLUTE (__DefaultInterrupt) >> 0x10) & 0x7f)
                  0x0010ad          0x2 SHORT 0x0
                  0x0010ae          0x2 SHORT 0x13e8 DEFINED (__Interrupt35)?ABSOLUTE (__Interrupt35):ABSOLUTE (__DefaultInterrupt)
                  0x0010af          0x2 SHORT 0x4
                  0x0010b0          0x2 SHORT 0x0 ((DEFINED (__Interrupt35)?ABSOLUTE (__Interrupt35):ABSOLUTE (__DefaultInterrupt) >> 0x10) & 0x7f)
                  0x0010b1          0x2 SHORT 0x0
                  0x0010b2          0x2 SHORT 0x13e8 DEFINED (__DMA3Interrupt)?ABSOLUTE (__DMA3Interrupt):ABSOLUTE (__DefaultInterrupt)
                  0x0010b3          0x2 SHORT 0x4
                  0x0010b4          0x2 SHORT 0x0 ((DEFINED (__DMA3Interrupt)?ABSOLUTE (__DMA3Interrupt):ABSOLUTE (__DefaultInterrupt) >> 0x10) & 0x7f)
                  0x0010b5          0x2 SHORT 0x0
                  0x0010b6          0x2 SHORT 0x13e8 DEFINED (__IC3Interrupt)?ABSOLUTE (__IC3Interrupt):ABSOLUTE (__DefaultInterrupt)
                  0x0010b7          0x2 SHORT 0x4
                  0x0010b8          0x2 SHORT 0x0 ((DEFINED (__IC3Interrupt)?ABSOLUTE (__IC3Interrupt):ABSOLUTE (__DefaultInterrupt) >> 0x10) & 0x7f)
                  0x0010b9          0x2 SHORT 0x0
                  0x0010ba          0x2 SHORT 0x13e8 DEFINED (__IC4Interrupt)?ABSOLUTE (__IC4Interrupt):ABSOLUTE (__DefaultInterrupt)
                  0x0010bb          0x2 SHORT 0x4
                  0x0010bc          0x2 SHORT 0x0 ((DEFINED (__IC4Interrupt)?ABSOLUTE (__IC4Interrupt):ABSOLUTE (__DefaultInterrupt) >> 0x10) & 0x7f)
                  0x0010bd          0x2 SHORT 0x0
                  0x0010be          0x2 SHORT 0x13e8 DEFINED (__Interrupt39)?ABSOLUTE (__Interrupt39):ABSOLUTE (__DefaultInterrupt)
                  0x0010bf          0x2 SHORT 0x4
                  0x0010c0          0x2 SHORT 0x0 ((DEFINED (__Interrupt39)?ABSOLUTE (__Interrupt39):ABSOLUTE (__DefaultInterrupt) >> 0x10) & 0x7f)
                  0x0010c1          0x2 SHORT 0x0
                  0x0010c2          0x2 SHORT 0x13e8 DEFINED (__Interrupt40)?ABSOLUTE (__Interrupt40):ABSOLUTE (__DefaultInterrupt)
                  0x0010c3          0x2 SHORT 0x4
                  0x0010c4          0x2 SHORT 0x0 ((DEFINED (__Interrupt40)?ABSOLUTE (__Interrupt40):ABSOLUTE (__DefaultInterrupt) >> 0x10) & 0x7f)
                  0x0010c5          0x2 SHORT 0x0
                  0x0010c6          0x2 SHORT 0x13e8 DEFINED (__Interrupt41)?ABSOLUTE (__Interrupt41):ABSOLUTE (__DefaultInterrupt)
                  0x0010c7          0x2 SHORT 0x4
                  0x0010c8          0x2 SHORT 0x0 ((DEFINED (__Interrupt41)?ABSOLUTE (__Interrupt41):ABSOLUTE (__DefaultInterrupt) >> 0x10) & 0x7f)
                  0x0010c9          0x2 SHORT 0x0
                  0x0010ca          0x2 SHORT 0x13e8 DEFINED (__Interrupt42)?ABSOLUTE (__Interrupt42):ABSOLUTE (__DefaultInterrupt)
                  0x0010cb          0x2 SHORT 0x4
                  0x0010cc          0x2 SHORT 0x0 ((DEFINED (__Interrupt42)?ABSOLUTE (__Interrupt42):ABSOLUTE (__DefaultInterrupt) >> 0x10) & 0x7f)
                  0x0010cd          0x2 SHORT 0x0
                  0x0010ce          0x2 SHORT 0x13e8 DEFINED (__Interrupt43)?ABSOLUTE (__Interrupt43):ABSOLUTE (__DefaultInterrupt)
                  0x0010cf          0x2 SHORT 0x4
                  0x0010d0          0x2 SHORT 0x0 ((DEFINED (__Interrupt43)?ABSOLUTE (__Interrupt43):ABSOLUTE (__DefaultInterrupt) >> 0x10) & 0x7f)
                  0x0010d1          0x2 SHORT 0x0
                  0x0010d2          0x2 SHORT 0x13e8 DEFINED (__Interrupt44)?ABSOLUTE (__Interrupt44):ABSOLUTE (__DefaultInterrupt)
                  0x0010d3          0x2 SHORT 0x4
                  0x0010d4          0x2 SHORT 0x0 ((DEFINED (__Interrupt44)?ABSOLUTE (__Interrupt44):ABSOLUTE (__DefaultInterrupt) >> 0x10) & 0x7f)
                  0x0010d5          0x2 SHORT 0x0
                  0x0010d6          0x2 SHORT 0x13e8 DEFINED (__Interrupt45)?ABSOLUTE (__Interrupt45):ABSOLUTE (__DefaultInterrupt)
                  0x0010d7          0x2 SHORT 0x4
                  0x0010d8          0x2 SHORT 0x0 ((DEFINED (__Interrupt45)?ABSOLUTE (__Interrupt45):ABSOLUTE (__DefaultInterrupt) >> 0x10) & 0x7f)
                  0x0010d9          0x2 SHORT 0x0
                  0x0010da          0x2 SHORT 0x13e8 DEFINED (__Interrupt46)?ABSOLUTE (__Interrupt46):ABSOLUTE (__DefaultInterrupt)
                  0x0010db          0x2 SHORT 0x4
                  0x0010dc          0x2 SHORT 0x0 ((DEFINED (__Interrupt46)?ABSOLUTE (__Interrupt46):ABSOLUTE (__DefaultInterrupt) >> 0x10) & 0x7f)
                  0x0010dd          0x2 SHORT 0x0
                  0x0010de          0x2 SHORT 0x13e8 DEFINED (__Interrupt47)?ABSOLUTE (__Interrupt47):ABSOLUTE (__DefaultInterrupt)
                  0x0010df          0x2 SHORT 0x4
                  0x0010e0          0x2 SHORT 0x0 ((DEFINED (__Interrupt47)?ABSOLUTE (__Interrupt47):ABSOLUTE (__DefaultInterrupt) >> 0x10) & 0x7f)
                  0x0010e1          0x2 SHORT 0x0
                  0x0010e2          0x2 SHORT 0x13e8 DEFINED (__Interrupt48)?ABSOLUTE (__Interrupt48):ABSOLUTE (__DefaultInterrupt)
                  0x0010e3          0x2 SHORT 0x4
                  0x0010e4          0x2 SHORT 0x0 ((DEFINED (__Interrupt48)?ABSOLUTE (__Interrupt48):ABSOLUTE (__DefaultInterrupt) >> 0x10) & 0x7f)
                  0x0010e5          0x2 SHORT 0x0
                  0x0010e6          0x2 SHORT 0x13e8 DEFINED (__SI2C2Interrupt)?ABSOLUTE (__SI2C2Interrupt):ABSOLUTE (__DefaultInterrupt)
                  0x0010e7          0x2 SHORT 0x4
                  0x0010e8          0x2 SHORT 0x0 ((DEFINED (__SI2C2Interrupt)?ABSOLUTE (__SI2C2Interrupt):ABSOLUTE (__DefaultInterrupt) >> 0x10) & 0x7f)
                  0x0010e9          0x2 SHORT 0x0
                  0x0010ea          0x2 SHORT 0x13e8 DEFINED (__MI2C2Interrupt)?ABSOLUTE (__MI2C2Interrupt):ABSOLUTE (__DefaultInterrupt)
                  0x0010eb          0x2 SHORT 0x4
                  0x0010ec          0x2 SHORT 0x0 ((DEFINED (__MI2C2Interrupt)?ABSOLUTE (__MI2C2Interrupt):ABSOLUTE (__DefaultInterrupt) >> 0x10) & 0x7f)
                  0x0010ed          0x2 SHORT 0x0
                  0x0010ee          0x2 SHORT 0x13e8 DEFINED (__Interrupt51)?ABSOLUTE (__Interrupt51):ABSOLUTE (__DefaultInterrupt)
                  0x0010ef          0x2 SHORT 0x4
                  0x0010f0          0x2 SHORT 0x0 ((DEFINED (__Interrupt51)?ABSOLUTE (__Interrupt51):ABSOLUTE (__DefaultInterrupt) >> 0x10) & 0x7f)
                  0x0010f1          0x2 SHORT 0x0
                  0x0010f2          0x2 SHORT 0x13e8 DEFINED (__Interrupt52)?ABSOLUTE (__Interrupt52):ABSOLUTE (__DefaultInterrupt)
                  0x0010f3          0x2 SHORT 0x4
                  0x0010f4          0x2 SHORT 0x0 ((DEFINED (__Interrupt52)?ABSOLUTE (__Interrupt52):ABSOLUTE (__DefaultInterrupt) >> 0x10) & 0x7f)
                  0x0010f5          0x2 SHORT 0x0
                  0x0010f6          0x2 SHORT 0x13e8 DEFINED (__Interrupt53)?ABSOLUTE (__Interrupt53):ABSOLUTE (__DefaultInterrupt)
                  0x0010f7          0x2 SHORT 0x4
                  0x0010f8          0x2 SHORT 0x0 ((DEFINED (__Interrupt53)?ABSOLUTE (__Interrupt53):ABSOLUTE (__DefaultInterrupt) >> 0x10) & 0x7f)
                  0x0010f9          0x2 SHORT 0x0
                  0x0010fa          0x2 SHORT 0x13e8 DEFINED (__Interrupt54)?ABSOLUTE (__Interrupt54):ABSOLUTE (__DefaultInterrupt)
                  0x0010fb          0x2 SHORT 0x4
                  0x0010fc          0x2 SHORT 0x0 ((DEFINED (__Interrupt54)?ABSOLUTE (__Interrupt54):ABSOLUTE (__DefaultInterrupt) >> 0x10) & 0x7f)
                  0x0010fd          0x2 SHORT 0x0
                  0x0010fe          0x2 SHORT 0x13e8 DEFINED (__Interrupt55)?ABSOLUTE (__Interrupt55):ABSOLUTE (__DefaultInterrupt)
                  0x0010ff          0x2 SHORT 0x4
                  0x001100          0x2 SHORT 0x0 ((DEFINED (__Interrupt55)?ABSOLUTE (__Interrupt55):ABSOLUTE (__DefaultInterrupt) >> 0x10) & 0x7f)
                  0x001101          0x2 SHORT 0x0
                  0x001102          0x2 SHORT 0x13e8 DEFINED (__Interrupt56)?ABSOLUTE (__Interrupt56):ABSOLUTE (__DefaultInterrupt)
                  0x001103          0x2 SHORT 0x4
                  0x001104          0x2 SHORT 0x0 ((DEFINED (__Interrupt56)?ABSOLUTE (__Interrupt56):ABSOLUTE (__DefaultInterrupt) >> 0x10) & 0x7f)
                  0x001105          0x2 SHORT 0x0
                  0x001106          0x2 SHORT 0x13e8 DEFINED (__PWMSpEventMatchInterrupt)?ABSOLUTE (__PWMSpEventMatchInterrupt):ABSOLUTE (__DefaultInterrupt)
                  0x001107          0x2 SHORT 0x4
                  0x001108          0x2 SHORT 0x0 ((DEFINED (__PWMSpEventMatchInterrupt)?ABSOLUTE (__PWMSpEventMatchInterrupt):ABSOLUTE (__DefaultInterrupt) >> 0x10) & 0x7f)
                  0x001109          0x2 SHORT 0x0
                  0x00110a          0x2 SHORT 0x13e8 DEFINED (__QEI1Interrupt)?ABSOLUTE (__QEI1Interrupt):ABSOLUTE (__DefaultInterrupt)
                  0x00110b          0x2 SHORT 0x4
                  0x00110c          0x2 SHORT 0x0 ((DEFINED (__QEI1Interrupt)?ABSOLUTE (__QEI1Interrupt):ABSOLUTE (__DefaultInterrupt) >> 0x10) & 0x7f)
                  0x00110d          0x2 SHORT 0x0
                  0x00110e          0x2 SHORT 0x13e8 DEFINED (__Interrupt59)?ABSOLUTE (__Interrupt59):ABSOLUTE (__DefaultInterrupt)
                  0x00110f          0x2 SHORT 0x4
                  0x001110          0x2 SHORT 0x0 ((DEFINED (__Interrupt59)?ABSOLUTE (__Interrupt59):ABSOLUTE (__DefaultInterrupt) >> 0x10) & 0x7f)
                  0x001111          0x2 SHORT 0x0
                  0x001112          0x2 SHORT 0x13e8 DEFINED (__Interrupt60)?ABSOLUTE (__Interrupt60):ABSOLUTE (__DefaultInterrupt)
                  0x001113          0x2 SHORT 0x4
                  0x001114          0x2 SHORT 0x0 ((DEFINED (__Interrupt60)?ABSOLUTE (__Interrupt60):ABSOLUTE (__DefaultInterrupt) >> 0x10) & 0x7f)
                  0x001115          0x2 SHORT 0x0
                  0x001116          0x2 SHORT 0x13e8 DEFINED (__Interrupt61)?ABSOLUTE (__Interrupt61):ABSOLUTE (__DefaultInterrupt)
                  0x001117          0x2 SHORT 0x4
                  0x001118          0x2 SHORT 0x0 ((DEFINED (__Interrupt61)?ABSOLUTE (__Interrupt61):ABSOLUTE (__DefaultInterrupt) >> 0x10) & 0x7f)
                  0x001119          0x2 SHORT 0x0
                  0x00111a          0x2 SHORT 0x13e8 DEFINED (__Interrupt62)?ABSOLUTE (__Interrupt62):ABSOLUTE (__DefaultInterrupt)
                  0x00111b          0x2 SHORT 0x4
                  0x00111c          0x2 SHORT 0x0 ((DEFINED (__Interrupt62)?ABSOLUTE (__Interrupt62):ABSOLUTE (__DefaultInterrupt) >> 0x10) & 0x7f)
                  0x00111d          0x2 SHORT 0x0
                  0x00111e          0x2 SHORT 0x13e8 DEFINED (__Interrupt63)?ABSOLUTE (__Interrupt63):ABSOLUTE (__DefaultInterrupt)
                  0x00111f          0x2 SHORT 0x4
                  0x001120          0x2 SHORT 0x0 ((DEFINED (__Interrupt63)?ABSOLUTE (__Interrupt63):ABSOLUTE (__DefaultInterrupt) >> 0x10) & 0x7f)
                  0x001121          0x2 SHORT 0x0
                  0x001122          0x2 SHORT 0x13e8 DEFINED (__Interrupt64)?ABSOLUTE (__Interrupt64):ABSOLUTE (__DefaultInterrupt)
                  0x001123          0x2 SHORT 0x4
                  0x001124          0x2 SHORT 0x0 ((DEFINED (__Interrupt64)?ABSOLUTE (__Interrupt64):ABSOLUTE (__DefaultInterrupt) >> 0x10) & 0x7f)
                  0x001125          0x2 SHORT 0x0
                  0x001126          0x2 SHORT 0x13e8 DEFINED (__U1ErrInterrupt)?ABSOLUTE (__U1ErrInterrupt):ABSOLUTE (__DefaultInterrupt)
                  0x001127          0x2 SHORT 0x4
                  0x001128          0x2 SHORT 0x0 ((DEFINED (__U1ErrInterrupt)?ABSOLUTE (__U1ErrInterrupt):ABSOLUTE (__DefaultInterrupt) >> 0x10) & 0x7f)
                  0x001129          0x2 SHORT 0x0
                  0x00112a          0x2 SHORT 0x13e8 DEFINED (__U2ErrInterrupt)?ABSOLUTE (__U2ErrInterrupt):ABSOLUTE (__DefaultInterrupt)
                  0x00112b          0x2 SHORT 0x4
                  0x00112c          0x2 SHORT 0x0 ((DEFINED (__U2ErrInterrupt)?ABSOLUTE (__U2ErrInterrupt):ABSOLUTE (__DefaultInterrupt) >> 0x10) & 0x7f)
                  0x00112d          0x2 SHORT 0x0
                  0x00112e          0x2 SHORT 0x13e8 DEFINED (__CRCInterrupt)?ABSOLUTE (__CRCInterrupt):ABSOLUTE (__DefaultInterrupt)
                  0x00112f          0x2 SHORT 0x4
                  0x001130          0x2 SHORT 0x0 ((DEFINED (__CRCInterrupt)?ABSOLUTE (__CRCInterrupt):ABSOLUTE (__DefaultInterrupt) >> 0x10) & 0x7f)
                  0x001131          0x2 SHORT 0x0
                  0x001132          0x2 SHORT 0x13e8 DEFINED (__Interrupt68)?ABSOLUTE (__Interrupt68):ABSOLUTE (__DefaultInterrupt)
                  0x001133          0x2 SHORT 0x4
                  0x001134          0x2 SHORT 0x0 ((DEFINED (__Interrupt68)?ABSOLUTE (__Interrupt68):ABSOLUTE (__DefaultInterrupt) >> 0x10) & 0x7f)
                  0x001135          0x2 SHORT 0x0
                  0x001136          0x2 SHORT 0x13e8 DEFINED (__Interrupt69)?ABSOLUTE (__Interrupt69):ABSOLUTE (__DefaultInterrupt)
                  0x001137          0x2 SHORT 0x4
                  0x001138          0x2 SHORT 0x0 ((DEFINED (__Interrupt69)?ABSOLUTE (__Interrupt69):ABSOLUTE (__DefaultInterrupt) >> 0x10) & 0x7f)
                  0x001139          0x2 SHORT 0x0
                  0x00113a          0x2 SHORT 0x13e8 DEFINED (__Interrupt70)?ABSOLUTE (__Interrupt70):ABSOLUTE (__DefaultInterrupt)
                  0x00113b          0x2 SHORT 0x4
                  0x00113c          0x2 SHORT 0x0 ((DEFINED (__Interrupt70)?ABSOLUTE (__Interrupt70):ABSOLUTE (__DefaultInterrupt) >> 0x10) & 0x7f)
                  0x00113d          0x2 SHORT 0x0
                  0x00113e          0x2 SHORT 0x13e8 DEFINED (__Interrupt71)?ABSOLUTE (__Interrupt71):ABSOLUTE (__DefaultInterrupt)
                  0x00113f          0x2 SHORT 0x4
                  0x001140          0x2 SHORT 0x0 ((DEFINED (__Interrupt71)?ABSOLUTE (__Interrupt71):ABSOLUTE (__DefaultInterrupt) >> 0x10) & 0x7f)
                  0x001141          0x2 SHORT 0x0
                  0x001142          0x2 SHORT 0x13e8 DEFINED (__Interrupt72)?ABSOLUTE (__Interrupt72):ABSOLUTE (__DefaultInterrupt)
                  0x001143          0x2 SHORT 0x4
                  0x001144          0x2 SHORT 0x0 ((DEFINED (__Interrupt72)?ABSOLUTE (__Interrupt72):ABSOLUTE (__DefaultInterrupt) >> 0x10) & 0x7f)
                  0x001145          0x2 SHORT 0x0
                  0x001146          0x2 SHORT 0x13e8 DEFINED (__Interrupt73)?ABSOLUTE (__Interrupt73):ABSOLUTE (__DefaultInterrupt)
                  0x001147          0x2 SHORT 0x4
                  0x001148          0x2 SHORT 0x0 ((DEFINED (__Interrupt73)?ABSOLUTE (__Interrupt73):ABSOLUTE (__DefaultInterrupt) >> 0x10) & 0x7f)
                  0x001149          0x2 SHORT 0x0
                  0x00114a          0x2 SHORT 0x13e8 DEFINED (__Interrupt74)?ABSOLUTE (__Interrupt74):ABSOLUTE (__DefaultInterrupt)
                  0x00114b          0x2 SHORT 0x4
                  0x00114c          0x2 SHORT 0x0 ((DEFINED (__Interrupt74)?ABSOLUTE (__Interrupt74):ABSOLUTE (__DefaultInterrupt) >> 0x10) & 0x7f)
                  0x00114d          0x2 SHORT 0x0
                  0x00114e          0x2 SHORT 0x13e8 DEFINED (__Interrupt75)?ABSOLUTE (__Interrupt75):ABSOLUTE (__DefaultInterrupt)
                  0x00114f          0x2 SHORT 0x4
                  0x001150          0x2 SHORT 0x0 ((DEFINED (__Interrupt75)?ABSOLUTE (__Interrupt75):ABSOLUTE (__DefaultInterrupt) >> 0x10) & 0x7f)
                  0x001151          0x2 SHORT 0x0
                  0x001152          0x2 SHORT 0x13e8 DEFINED (__Interrupt76)?ABSOLUTE (__Interrupt76):ABSOLUTE (__DefaultInterrupt)
                  0x001153          0x2 SHORT 0x4
                  0x001154          0x2 SHORT 0x0 ((DEFINED (__Interrupt76)?ABSOLUTE (__Interrupt76):ABSOLUTE (__DefaultInterrupt) >> 0x10) & 0x7f)
                  0x001155          0x2 SHORT 0x0
                  0x001156          0x2 SHORT 0x13e8 DEFINED (__CTMUInterrupt)?ABSOLUTE (__CTMUInterrupt):ABSOLUTE (__DefaultInterrupt)
                  0x001157          0x2 SHORT 0x4
                  0x001158          0x2 SHORT 0x0 ((DEFINED (__CTMUInterrupt)?ABSOLUTE (__CTMUInterrupt):ABSOLUTE (__DefaultInterrupt) >> 0x10) & 0x7f)
                  0x001159          0x2 SHORT 0x0
                  0x00115a          0x2 SHORT 0x13e8 DEFINED (__Interrupt78)?ABSOLUTE (__Interrupt78):ABSOLUTE (__DefaultInterrupt)
                  0x00115b          0x2 SHORT 0x4
                  0x00115c          0x2 SHORT 0x0 ((DEFINED (__Interrupt78)?ABSOLUTE (__Interrupt78):ABSOLUTE (__DefaultInterrupt) >> 0x10) & 0x7f)
                  0x00115d          0x2 SHORT 0x0
                  0x00115e          0x2 SHORT 0x13e8 DEFINED (__Interrupt79)?ABSOLUTE (__Interrupt79):ABSOLUTE (__DefaultInterrupt)
                  0x00115f          0x2 SHORT 0x4
                  0x001160          0x2 SHORT 0x0 ((DEFINED (__Interrupt79)?ABSOLUTE (__Interrupt79):ABSOLUTE (__DefaultInterrupt) >> 0x10) & 0x7f)
                  0x001161          0x2 SHORT 0x0
                  0x001162          0x2 SHORT 0x13e8 DEFINED (__Interrupt80)?ABSOLUTE (__Interrupt80):ABSOLUTE (__DefaultInterrupt)
                  0x001163          0x2 SHORT 0x4
                  0x001164          0x2 SHORT 0x0 ((DEFINED (__Interrupt80)?ABSOLUTE (__Interrupt80):ABSOLUTE (__DefaultInterrupt) >> 0x10) & 0x7f)
                  0x001165          0x2 SHORT 0x0
                  0x001166          0x2 SHORT 0x13e8 DEFINED (__Interrupt81)?ABSOLUTE (__Interrupt81):ABSOLUTE (__DefaultInterrupt)
                  0x001167          0x2 SHORT 0x4
                  0x001168          0x2 SHORT 0x0 ((DEFINED (__Interrupt81)?ABSOLUTE (__Interrupt81):ABSOLUTE (__DefaultInterrupt) >> 0x10) & 0x7f)
                  0x001169          0x2 SHORT 0x0
                  0x00116a          0x2 SHORT 0x13e8 DEFINED (__Interrupt82)?ABSOLUTE (__Interrupt82):ABSOLUTE (__DefaultInterrupt)
                  0x00116b          0x2 SHORT 0x4
                  0x00116c          0x2 SHORT 0x0 ((DEFINED (__Interrupt82)?ABSOLUTE (__Interrupt82):ABSOLUTE (__DefaultInterrupt) >> 0x10) & 0x7f)
                  0x00116d          0x2 SHORT 0x0
                  0x00116e          0x2 SHORT 0x13e8 DEFINED (__Interrupt83)?ABSOLUTE (__Interrupt83):ABSOLUTE (__DefaultInterrupt)
                  0x00116f          0x2 SHORT 0x4
                  0x001170          0x2 SHORT 0x0 ((DEFINED (__Interrupt83)?ABSOLUTE (__Interrupt83):ABSOLUTE (__DefaultInterrupt) >> 0x10) & 0x7f)
                  0x001171          0x2 SHORT 0x0
                  0x001172          0x2 SHORT 0x13e8 DEFINED (__Interrupt84)?ABSOLUTE (__Interrupt84):ABSOLUTE (__DefaultInterrupt)
                  0x001173          0x2 SHORT 0x4
                  0x001174          0x2 SHORT 0x0 ((DEFINED (__Interrupt84)?ABSOLUTE (__Interrupt84):ABSOLUTE (__DefaultInterrupt) >> 0x10) & 0x7f)
                  0x001175          0x2 SHORT 0x0
                  0x001176          0x2 SHORT 0x13e8 DEFINED (__Interrupt85)?ABSOLUTE (__Interrupt85):ABSOLUTE (__DefaultInterrupt)
                  0x001177          0x2 SHORT 0x4
                  0x001178          0x2 SHORT 0x0 ((DEFINED (__Interrupt85)?ABSOLUTE (__Interrupt85):ABSOLUTE (__DefaultInterrupt) >> 0x10) & 0x7f)
                  0x001179          0x2 SHORT 0x0
                  0x00117a          0x2 SHORT 0x13e8 DEFINED (__Interrupt86)?ABSOLUTE (__Interrupt86):ABSOLUTE (__DefaultInterrupt)
                  0x00117b          0x2 SHORT 0x4
                  0x00117c          0x2 SHORT 0x0 ((DEFINED (__Interrupt86)?ABSOLUTE (__Interrupt86):ABSOLUTE (__DefaultInterrupt) >> 0x10) & 0x7f)
                  0x00117d          0x2 SHORT 0x0
                  0x00117e          0x2 SHORT 0x13e8 DEFINED (__Interrupt87)?ABSOLUTE (__Interrupt87):ABSOLUTE (__DefaultInterrupt)
                  0x00117f          0x2 SHORT 0x4
                  0x001180          0x2 SHORT 0x0 ((DEFINED (__Interrupt87)?ABSOLUTE (__Interrupt87):ABSOLUTE (__DefaultInterrupt) >> 0x10) & 0x7f)
                  0x001181          0x2 SHORT 0x0
                  0x001182          0x2 SHORT 0x13e8 DEFINED (__Interrupt88)?ABSOLUTE (__Interrupt88):ABSOLUTE (__DefaultInterrupt)
                  0x001183          0x2 SHORT 0x4
                  0x001184          0x2 SHORT 0x0 ((DEFINED (__Interrupt88)?ABSOLUTE (__Interrupt88):ABSOLUTE (__DefaultInterrupt) >> 0x10) & 0x7f)
                  0x001185          0x2 SHORT 0x0
                  0x001186          0x2 SHORT 0x13e8 DEFINED (__Interrupt89)?ABSOLUTE (__Interrupt89):ABSOLUTE (__DefaultInterrupt)
                  0x001187          0x2 SHORT 0x4
                  0x001188          0x2 SHORT 0x0 ((DEFINED (__Interrupt89)?ABSOLUTE (__Interrupt89):ABSOLUTE (__DefaultInterrupt) >> 0x10) & 0x7f)
                  0x001189          0x2 SHORT 0x0
                  0x00118a          0x2 SHORT 0x13e8 DEFINED (__Interrupt90)?ABSOLUTE (__Interrupt90):ABSOLUTE (__DefaultInterrupt)
                  0x00118b          0x2 SHORT 0x4
                  0x00118c          0x2 SHORT 0x0 ((DEFINED (__Interrupt90)?ABSOLUTE (__Interrupt90):ABSOLUTE (__DefaultInterrupt) >> 0x10) & 0x7f)
                  0x00118d          0x2 SHORT 0x0
                  0x00118e          0x2 SHORT 0x13e8 DEFINED (__Interrupt91)?ABSOLUTE (__Interrupt91):ABSOLUTE (__DefaultInterrupt)
                  0x00118f          0x2 SHORT 0x4
                  0x001190          0x2 SHORT 0x0 ((DEFINED (__Interrupt91)?ABSOLUTE (__Interrupt91):ABSOLUTE (__DefaultInterrupt) >> 0x10) & 0x7f)
                  0x001191          0x2 SHORT 0x0
                  0x001192          0x2 SHORT 0x13e8 DEFINED (__Interrupt92)?ABSOLUTE (__Interrupt92):ABSOLUTE (__DefaultInterrupt)
                  0x001193          0x2 SHORT 0x4
                  0x001194          0x2 SHORT 0x0 ((DEFINED (__Interrupt92)?ABSOLUTE (__Interrupt92):ABSOLUTE (__DefaultInterrupt) >> 0x10) & 0x7f)
                  0x001195          0x2 SHORT 0x0
                  0x001196          0x2 SHORT 0x13e8 DEFINED (__Interrupt93)?ABSOLUTE (__Interrupt93):ABSOLUTE (__DefaultInterrupt)
                  0x001197          0x2 SHORT 0x4
                  0x001198          0x2 SHORT 0x0 ((DEFINED (__Interrupt93)?ABSOLUTE (__Interrupt93):ABSOLUTE (__DefaultInterrupt) >> 0x10) & 0x7f)
                  0x001199          0x2 SHORT 0x0
                  0x00119a          0x2 SHORT 0x13e8 DEFINED (__PWM1Interrupt)?ABSOLUTE (__PWM1Interrupt):ABSOLUTE (__DefaultInterrupt)
                  0x00119b          0x2 SHORT 0x4
                  0x00119c          0x2 SHORT 0x0 ((DEFINED (__PWM1Interrupt)?ABSOLUTE (__PWM1Interrupt):ABSOLUTE (__DefaultInterrupt) >> 0x10) & 0x7f)
                  0x00119d          0x2 SHORT 0x0
                  0x00119e          0x2 SHORT 0x13e8 DEFINED (__PWM2Interrupt)?ABSOLUTE (__PWM2Interrupt):ABSOLUTE (__DefaultInterrupt)
                  0x00119f          0x2 SHORT 0x4
                  0x0011a0          0x2 SHORT 0x0 ((DEFINED (__PWM2Interrupt)?ABSOLUTE (__PWM2Interrupt):ABSOLUTE (__DefaultInterrupt) >> 0x10) & 0x7f)
                  0x0011a1          0x2 SHORT 0x0
                  0x0011a2          0x2 SHORT 0x13e8 DEFINED (__PWM3Interrupt)?ABSOLUTE (__PWM3Interrupt):ABSOLUTE (__DefaultInterrupt)
                  0x0011a3          0x2 SHORT 0x4
                  0x0011a4          0x2 SHORT 0x0 ((DEFINED (__PWM3Interrupt)?ABSOLUTE (__PWM3Interrupt):ABSOLUTE (__DefaultInterrupt) >> 0x10) & 0x7f)
                  0x0011a5          0x2 SHORT 0x0
                  0x0011a6          0x2 SHORT 0x13e8 DEFINED (__Interrupt97)?ABSOLUTE (__Interrupt97):ABSOLUTE (__DefaultInterrupt)
                  0x0011a7          0x2 SHORT 0x4
                  0x0011a8          0x2 SHORT 0x0 ((DEFINED (__Interrupt97)?ABSOLUTE (__Interrupt97):ABSOLUTE (__DefaultInterrupt) >> 0x10) & 0x7f)
                  0x0011a9          0x2 SHORT 0x0
                  0x0011aa          0x2 SHORT 0x13e8 DEFINED (__Interrupt98)?ABSOLUTE (__Interrupt98):ABSOLUTE (__DefaultInterrupt)
                  0x0011ab          0x2 SHORT 0x4
                  0x0011ac          0x2 SHORT 0x0 ((DEFINED (__Interrupt98)?ABSOLUTE (__Interrupt98):ABSOLUTE (__DefaultInterrupt) >> 0x10) & 0x7f)
                  0x0011ad          0x2 SHORT 0x0
                  0x0011ae          0x2 SHORT 0x13e8 DEFINED (__Interrupt99)?ABSOLUTE (__Interrupt99):ABSOLUTE (__DefaultInterrupt)
                  0x0011af          0x2 SHORT 0x4
                  0x0011b0          0x2 SHORT 0x0 ((DEFINED (__Interrupt99)?ABSOLUTE (__Interrupt99):ABSOLUTE (__DefaultInterrupt) >> 0x10) & 0x7f)
                  0x0011b1          0x2 SHORT 0x0
                  0x0011b2          0x2 SHORT 0x13e8 DEFINED (__Interrupt100)?ABSOLUTE (__Interrupt100):ABSOLUTE (__DefaultInterrupt)
                  0x0011b3          0x2 SHORT 0x4
                  0x0011b4          0x2 SHORT 0x0 ((DEFINED (__Interrupt100)?ABSOLUTE (__Interrupt100):ABSOLUTE (__DefaultInterrupt) >> 0x10) & 0x7f)
                  0x0011b5          0x2 SHORT 0x0
                  0x0011b6          0x2 SHORT 0x13e8 DEFINED (__Interrupt101)?ABSOLUTE (__Interrupt101):ABSOLUTE (__DefaultInterrupt)
                  0x0011b7          0x2 SHORT 0x4
                  0x0011b8          0x2 SHORT 0x0 ((DEFINED (__Interrupt101)?ABSOLUTE (__Interrupt101):ABSOLUTE (__DefaultInterrupt) >> 0x10) & 0x7f)
                  0x0011b9          0x2 SHORT 0x0
                  0x0011ba          0x2 SHORT 0x13e8 DEFINED (__Interrupt102)?ABSOLUTE (__Interrupt102):ABSOLUTE (__DefaultInterrupt)
                  0x0011bb          0x2 SHORT 0x4
                  0x0011bc          0x2 SHORT 0x0 ((DEFINED (__Interrupt102)?ABSOLUTE (__Interrupt102):ABSOLUTE (__DefaultInterrupt) >> 0x10) & 0x7f)
                  0x0011bd          0x2 SHORT 0x0
                  0x0011be          0x2 SHORT 0x13e8 DEFINED (__Interrupt103)?ABSOLUTE (__Interrupt103):ABSOLUTE (__DefaultInterrupt)
                  0x0011bf          0x2 SHORT 0x4
                  0x0011c0          0x2 SHORT 0x0 ((DEFINED (__Interrupt103)?ABSOLUTE (__Interrupt103):ABSOLUTE (__DefaultInterrupt) >> 0x10) & 0x7f)
                  0x0011c1          0x2 SHORT 0x0
                  0x0011c2          0x2 SHORT 0x13e8 DEFINED (__Interrupt104)?ABSOLUTE (__Interrupt104):ABSOLUTE (__DefaultInterrupt)
                  0x0011c3          0x2 SHORT 0x4
                  0x0011c4          0x2 SHORT 0x0 ((DEFINED (__Interrupt104)?ABSOLUTE (__Interrupt104):ABSOLUTE (__DefaultInterrupt) >> 0x10) & 0x7f)
                  0x0011c5          0x2 SHORT 0x0
                  0x0011c6          0x2 SHORT 0x13e8 DEFINED (__Interrupt105)?ABSOLUTE (__Interrupt105):ABSOLUTE (__DefaultInterrupt)
                  0x0011c7          0x2 SHORT 0x4
                  0x0011c8          0x2 SHORT 0x0 ((DEFINED (__Interrupt105)?ABSOLUTE (__Interrupt105):ABSOLUTE (__DefaultInterrupt) >> 0x10) & 0x7f)
                  0x0011c9          0x2 SHORT 0x0
                  0x0011ca          0x2 SHORT 0x13e8 DEFINED (__Interrupt106)?ABSOLUTE (__Interrupt106):ABSOLUTE (__DefaultInterrupt)
                  0x0011cb          0x2 SHORT 0x4
                  0x0011cc          0x2 SHORT 0x0 ((DEFINED (__Interrupt106)?ABSOLUTE (__Interrupt106):ABSOLUTE (__DefaultInterrupt) >> 0x10) & 0x7f)
                  0x0011cd          0x2 SHORT 0x0
                  0x0011ce          0x2 SHORT 0x13e8 DEFINED (__Interrupt107)?ABSOLUTE (__Interrupt107):ABSOLUTE (__DefaultInterrupt)
                  0x0011cf          0x2 SHORT 0x4
                  0x0011d0          0x2 SHORT 0x0 ((DEFINED (__Interrupt107)?ABSOLUTE (__Interrupt107):ABSOLUTE (__DefaultInterrupt) >> 0x10) & 0x7f)
                  0x0011d1          0x2 SHORT 0x0
                  0x0011d2          0x2 SHORT 0x13e8 DEFINED (__Interrupt108)?ABSOLUTE (__Interrupt108):ABSOLUTE (__DefaultInterrupt)
                  0x0011d3          0x2 SHORT 0x4
                  0x0011d4          0x2 SHORT 0x0 ((DEFINED (__Interrupt108)?ABSOLUTE (__Interrupt108):ABSOLUTE (__DefaultInterrupt) >> 0x10) & 0x7f)
                  0x0011d5          0x2 SHORT 0x0
                  0x0011d6          0x2 SHORT 0x13e8 DEFINED (__Interrupt109)?ABSOLUTE (__Interrupt109):ABSOLUTE (__DefaultInterrupt)
                  0x0011d7          0x2 SHORT 0x4
                  0x0011d8          0x2 SHORT 0x0 ((DEFINED (__Interrupt109)?ABSOLUTE (__Interrupt109):ABSOLUTE (__DefaultInterrupt) >> 0x10) & 0x7f)
                  0x0011d9          0x2 SHORT 0x0
                  0x0011da          0x2 SHORT 0x13e8 DEFINED (__Interrupt110)?ABSOLUTE (__Interrupt110):ABSOLUTE (__DefaultInterrupt)
                  0x0011db          0x2 SHORT 0x4
                  0x0011dc          0x2 SHORT 0x0 ((DEFINED (__Interrupt110)?ABSOLUTE (__Interrupt110):ABSOLUTE (__DefaultInterrupt) >> 0x10) & 0x7f)
                  0x0011dd          0x2 SHORT 0x0
                  0x0011de          0x2 SHORT 0x13e8 DEFINED (__Interrupt111)?ABSOLUTE (__Interrupt111):ABSOLUTE (__DefaultInterrupt)
                  0x0011df          0x2 SHORT 0x4
                  0x0011e0          0x2 SHORT 0x0 ((DEFINED (__Interrupt111)?ABSOLUTE (__Interrupt111):ABSOLUTE (__DefaultInterrupt) >> 0x10) & 0x7f)
                  0x0011e1          0x2 SHORT 0x0
                  0x0011e2          0x2 SHORT 0x13e8 DEFINED (__Interrupt112)?ABSOLUTE (__Interrupt112):ABSOLUTE (__DefaultInterrupt)
                  0x0011e3          0x2 SHORT 0x4
                  0x0011e4          0x2 SHORT 0x0 ((DEFINED (__Interrupt112)?ABSOLUTE (__Interrupt112):ABSOLUTE (__DefaultInterrupt) >> 0x10) & 0x7f)
                  0x0011e5          0x2 SHORT 0x0
                  0x0011e6          0x2 SHORT 0x13e8 DEFINED (__Interrupt113)?ABSOLUTE (__Interrupt113):ABSOLUTE (__DefaultInterrupt)
                  0x0011e7          0x2 SHORT 0x4
                  0x0011e8          0x2 SHORT 0x0 ((DEFINED (__Interrupt113)?ABSOLUTE (__Interrupt113):ABSOLUTE (__DefaultInterrupt) >> 0x10) & 0x7f)
                  0x0011e9          0x2 SHORT 0x0
                  0x0011ea          0x2 SHORT 0x13e8 DEFINED (__Interrupt114)?ABSOLUTE (__Interrupt114):ABSOLUTE (__DefaultInterrupt)
                  0x0011eb          0x2 SHORT 0x4
                  0x0011ec          0x2 SHORT 0x0 ((DEFINED (__Interrupt114)?ABSOLUTE (__Interrupt114):ABSOLUTE (__DefaultInterrupt) >> 0x10) & 0x7f)
                  0x0011ed          0x2 SHORT 0x0
                  0x0011ee          0x2 SHORT 0x13e8 DEFINED (__Interrupt115)?ABSOLUTE (__Interrupt115):ABSOLUTE (__DefaultInterrupt)
                  0x0011ef          0x2 SHORT 0x4
                  0x0011f0          0x2 SHORT 0x0 ((DEFINED (__Interrupt115)?ABSOLUTE (__Interrupt115):ABSOLUTE (__DefaultInterrupt) >> 0x10) & 0x7f)
                  0x0011f1          0x2 SHORT 0x0
                  0x0011f2          0x2 SHORT 0x13e8 DEFINED (__Interrupt116)?ABSOLUTE (__Interrupt116):ABSOLUTE (__DefaultInterrupt)
                  0x0011f3          0x2 SHORT 0x4
                  0x0011f4          0x2 SHORT 0x0 ((DEFINED (__Interrupt116)?ABSOLUTE (__Interrupt116):ABSOLUTE (__DefaultInterrupt) >> 0x10) & 0x7f)
                  0x0011f5          0x2 SHORT 0x0
                  0x0011f6          0x2 SHORT 0x13e8 DEFINED (__Interrupt117)?ABSOLUTE (__Interrupt117):ABSOLUTE (__DefaultInterrupt)
                  0x0011f7          0x2 SHORT 0x4
                  0x0011f8          0x2 SHORT 0x0 ((DEFINED (__Interrupt117)?ABSOLUTE (__Interrupt117):ABSOLUTE (__DefaultInterrupt) >> 0x10) & 0x7f)
                  0x0011f9          0x2 SHORT 0x0
                  0x0011fa          0x2 SHORT 0x13e8 DEFINED (__Interrupt118)?ABSOLUTE (__Interrupt118):ABSOLUTE (__DefaultInterrupt)
                  0x0011fb          0x2 SHORT 0x4
                  0x0011fc          0x2 SHORT 0x0 ((DEFINED (__Interrupt118)?ABSOLUTE (__Interrupt118):ABSOLUTE (__DefaultInterrupt) >> 0x10) & 0x7f)
                  0x0011fd          0x2 SHORT 0x0
                  0x0011fe          0x2 SHORT 0x13e8 DEFINED (__Interrupt119)?ABSOLUTE (__Interrupt119):ABSOLUTE (__DefaultInterrupt)
                  0x0011ff          0x2 SHORT 0x4
                  0x001200          0x2 SHORT 0x0 ((DEFINED (__Interrupt119)?ABSOLUTE (__Interrupt119):ABSOLUTE (__DefaultInterrupt) >> 0x10) & 0x7f)
                  0x001201          0x2 SHORT 0x0
                  0x001202          0x2 SHORT 0x13e8 DEFINED (__Interrupt120)?ABSOLUTE (__Interrupt120):ABSOLUTE (__DefaultInterrupt)
                  0x001203          0x2 SHORT 0x4
                  0x001204          0x2 SHORT 0x0 ((DEFINED (__Interrupt120)?ABSOLUTE (__Interrupt120):ABSOLUTE (__DefaultInterrupt) >> 0x10) & 0x7f)
                  0x001205          0x2 SHORT 0x0
                  0x001206          0x2 SHORT 0x13e8 DEFINED (__Interrupt121)?ABSOLUTE (__Interrupt121):ABSOLUTE (__DefaultInterrupt)
                  0x001207          0x2 SHORT 0x4
                  0x001208          0x2 SHORT 0x0 ((DEFINED (__Interrupt121)?ABSOLUTE (__Interrupt121):ABSOLUTE (__DefaultInterrupt) >> 0x10) & 0x7f)
                  0x001209          0x2 SHORT 0x0
                  0x00120a          0x2 SHORT 0x13e8 DEFINED (__Interrupt122)?ABSOLUTE (__Interrupt122):ABSOLUTE (__DefaultInterrupt)
                  0x00120b          0x2 SHORT 0x4
                  0x00120c          0x2 SHORT 0x0 ((DEFINED (__Interrupt122)?ABSOLUTE (__Interrupt122):ABSOLUTE (__DefaultInterrupt) >> 0x10) & 0x7f)
                  0x00120d          0x2 SHORT 0x0
                  0x00120e          0x2 SHORT 0x13e8 DEFINED (__Interrupt123)?ABSOLUTE (__Interrupt123):ABSOLUTE (__DefaultInterrupt)
                  0x00120f          0x2 SHORT 0x4
                  0x001210          0x2 SHORT 0x0 ((DEFINED (__Interrupt123)?ABSOLUTE (__Interrupt123):ABSOLUTE (__DefaultInterrupt) >> 0x10) & 0x7f)
                  0x001211          0x2 SHORT 0x0
                  0x001212          0x2 SHORT 0x13e8 DEFINED (__Interrupt124)?ABSOLUTE (__Interrupt124):ABSOLUTE (__DefaultInterrupt)
                  0x001213          0x2 SHORT 0x4
                  0x001214          0x2 SHORT 0x0 ((DEFINED (__Interrupt124)?ABSOLUTE (__Interrupt124):ABSOLUTE (__DefaultInterrupt) >> 0x10) & 0x7f)
                  0x001215          0x2 SHORT 0x0
                  0x001216          0x2 SHORT 0x13e8 DEFINED (__Interrupt125)?ABSOLUTE (__Interrupt125):ABSOLUTE (__DefaultInterrupt)
                  0x001217          0x2 SHORT 0x4
                  0x001218          0x2 SHORT 0x0 ((DEFINED (__Interrupt125)?ABSOLUTE (__Interrupt125):ABSOLUTE (__DefaultInterrupt) >> 0x10) & 0x7f)
                  0x001219          0x2 SHORT 0x0
                  0x00121a          0x2 SHORT 0x13e8 DEFINED (__Interrupt126)?ABSOLUTE (__Interrupt126):ABSOLUTE (__DefaultInterrupt)
                  0x00121b          0x2 SHORT 0x4
                  0x00121c          0x2 SHORT 0x0 ((DEFINED (__Interrupt126)?ABSOLUTE (__Interrupt126):ABSOLUTE (__DefaultInterrupt) >> 0x10) & 0x7f)
                  0x00121d          0x2 SHORT 0x0
                  0x00121e          0x2 SHORT 0x13e8 DEFINED (__Interrupt127)?ABSOLUTE (__Interrupt127):ABSOLUTE (__DefaultInterrupt)
                  0x00121f          0x2 SHORT 0x4
                  0x001220          0x2 SHORT 0x0 ((DEFINED (__Interrupt127)?ABSOLUTE (__Interrupt127):ABSOLUTE (__DefaultInterrupt) >> 0x10) & 0x7f)
                  0x001221          0x2 SHORT 0x0
                  0x001222          0x2 SHORT 0x13e8 DEFINED (__Interrupt128)?ABSOLUTE (__Interrupt128):ABSOLUTE (__DefaultInterrupt)
                  0x001223          0x2 SHORT 0x4
                  0x001224          0x2 SHORT 0x0 ((DEFINED (__Interrupt128)?ABSOLUTE (__Interrupt128):ABSOLUTE (__DefaultInterrupt) >> 0x10) & 0x7f)
                  0x001225          0x2 SHORT 0x0
                  0x001226          0x2 SHORT 0x13e8 DEFINED (__Interrupt129)?ABSOLUTE (__Interrupt129):ABSOLUTE (__DefaultInterrupt)
                  0x001227          0x2 SHORT 0x4
                  0x001228          0x2 SHORT 0x0 ((DEFINED (__Interrupt129)?ABSOLUTE (__Interrupt129):ABSOLUTE (__DefaultInterrupt) >> 0x10) & 0x7f)
                  0x001229          0x2 SHORT 0x0
                  0x00122a          0x2 SHORT 0x13e8 DEFINED (__Interrupt130)?ABSOLUTE (__Interrupt130):ABSOLUTE (__DefaultInterrupt)
                  0x00122b          0x2 SHORT 0x4
                  0x00122c          0x2 SHORT 0x0 ((DEFINED (__Interrupt130)?ABSOLUTE (__Interrupt130):ABSOLUTE (__DefaultInterrupt) >> 0x10) & 0x7f)
                  0x00122d          0x2 SHORT 0x0
                  0x00122e          0x2 SHORT 0x13e8 DEFINED (__Interrupt131)?ABSOLUTE (__Interrupt131):ABSOLUTE (__DefaultInterrupt)
                  0x00122f          0x2 SHORT 0x4
                  0x001230          0x2 SHORT 0x0 ((DEFINED (__Interrupt131)?ABSOLUTE (__Interrupt131):ABSOLUTE (__DefaultInterrupt) >> 0x10) & 0x7f)
                  0x001231          0x2 SHORT 0x0
                  0x001232          0x2 SHORT 0x13e8 DEFINED (__Interrupt132)?ABSOLUTE (__Interrupt132):ABSOLUTE (__DefaultInterrupt)
                  0x001233          0x2 SHORT 0x4
                  0x001234          0x2 SHORT 0x0 ((DEFINED (__Interrupt132)?ABSOLUTE (__Interrupt132):ABSOLUTE (__DefaultInterrupt) >> 0x10) & 0x7f)
                  0x001235          0x2 SHORT 0x0
                  0x001236          0x2 SHORT 0x13e8 DEFINED (__Interrupt133)?ABSOLUTE (__Interrupt133):ABSOLUTE (__DefaultInterrupt)
                  0x001237          0x2 SHORT 0x4
                  0x001238          0x2 SHORT 0x0 ((DEFINED (__Interrupt133)?ABSOLUTE (__Interrupt133):ABSOLUTE (__DefaultInterrupt) >> 0x10) & 0x7f)
                  0x001239          0x2 SHORT 0x0
                  0x00123a          0x2 SHORT 0x13e8 DEFINED (__Interrupt134)?ABSOLUTE (__Interrupt134):ABSOLUTE (__DefaultInterrupt)
                  0x00123b          0x2 SHORT 0x4
                  0x00123c          0x2 SHORT 0x0 ((DEFINED (__Interrupt134)?ABSOLUTE (__Interrupt134):ABSOLUTE (__DefaultInterrupt) >> 0x10) & 0x7f)
                  0x00123d          0x2 SHORT 0x0
                  0x00123e          0x2 SHORT 0x13e8 DEFINED (__Interrupt135)?ABSOLUTE (__Interrupt135):ABSOLUTE (__DefaultInterrupt)
                  0x00123f          0x2 SHORT 0x4
                  0x001240          0x2 SHORT 0x0 ((DEFINED (__Interrupt135)?ABSOLUTE (__Interrupt135):ABSOLUTE (__DefaultInterrupt) >> 0x10) & 0x7f)
                  0x001241          0x2 SHORT 0x0
                  0x001242          0x2 SHORT 0x13e8 DEFINED (__Interrupt136)?ABSOLUTE (__Interrupt136):ABSOLUTE (__DefaultInterrupt)
                  0x001243          0x2 SHORT 0x4
                  0x001244          0x2 SHORT 0x0 ((DEFINED (__Interrupt136)?ABSOLUTE (__Interrupt136):ABSOLUTE (__DefaultInterrupt) >> 0x10) & 0x7f)
                  0x001245          0x2 SHORT 0x0
                  0x001246          0x2 SHORT 0x13e8 DEFINED (__Interrupt137)?ABSOLUTE (__Interrupt137):ABSOLUTE (__DefaultInterrupt)
                  0x001247          0x2 SHORT 0x4
                  0x001248          0x2 SHORT 0x0 ((DEFINED (__Interrupt137)?ABSOLUTE (__Interrupt137):ABSOLUTE (__DefaultInterrupt) >> 0x10) & 0x7f)
                  0x001249          0x2 SHORT 0x0
                  0x00124a          0x2 SHORT 0x13e8 DEFINED (__Interrupt138)?ABSOLUTE (__Interrupt138):ABSOLUTE (__DefaultInterrupt)
                  0x00124b          0x2 SHORT 0x4
                  0x00124c          0x2 SHORT 0x0 ((DEFINED (__Interrupt138)?ABSOLUTE (__Interrupt138):ABSOLUTE (__DefaultInterrupt) >> 0x10) & 0x7f)
                  0x00124d          0x2 SHORT 0x0
                  0x00124e          0x2 SHORT 0x13e8 DEFINED (__Interrupt139)?ABSOLUTE (__Interrupt139):ABSOLUTE (__DefaultInterrupt)
                  0x00124f          0x2 SHORT 0x4
                  0x001250          0x2 SHORT 0x0 ((DEFINED (__Interrupt139)?ABSOLUTE (__Interrupt139):ABSOLUTE (__DefaultInterrupt) >> 0x10) & 0x7f)
                  0x001251          0x2 SHORT 0x0
                  0x001252          0x2 SHORT 0x13e8 DEFINED (__Interrupt140)?ABSOLUTE (__Interrupt140):ABSOLUTE (__DefaultInterrupt)
                  0x001253          0x2 SHORT 0x4
                  0x001254          0x2 SHORT 0x0 ((DEFINED (__Interrupt140)?ABSOLUTE (__Interrupt140):ABSOLUTE (__DefaultInterrupt) >> 0x10) & 0x7f)
                  0x001255          0x2 SHORT 0x0
                  0x001256          0x2 SHORT 0x13e8 DEFINED (__Interrupt141)?ABSOLUTE (__Interrupt141):ABSOLUTE (__DefaultInterrupt)
                  0x001257          0x2 SHORT 0x4
                  0x001258          0x2 SHORT 0x0 ((DEFINED (__Interrupt141)?ABSOLUTE (__Interrupt141):ABSOLUTE (__DefaultInterrupt) >> 0x10) & 0x7f)
                  0x001259          0x2 SHORT 0x0
                  0x00125a          0x2 SHORT 0x13e8 DEFINED (__ICDInterrupt)?ABSOLUTE (__ICDInterrupt):ABSOLUTE (__DefaultInterrupt)
                  0x00125b          0x2 SHORT 0x4
                  0x00125c          0x2 SHORT 0x0 ((DEFINED (__ICDInterrupt)?ABSOLUTE (__ICDInterrupt):ABSOLUTE (__DefaultInterrupt) >> 0x10) & 0x7f)
                  0x00125d          0x2 SHORT 0x0
                  0x00125e          0x2 SHORT 0x13e8 DEFINED (__JTAGInterrupt)?ABSOLUTE (__JTAGInterrupt):ABSOLUTE (__DefaultInterrupt)
                  0x00125f          0x2 SHORT 0x4
                  0x001260          0x2 SHORT 0x0 ((DEFINED (__JTAGInterrupt)?ABSOLUTE (__JTAGInterrupt):ABSOLUTE (__DefaultInterrupt) >> 0x10) & 0x7f)
                  0x001261          0x2 SHORT 0x0
                  0x001262          0x2 SHORT 0x13e8 DEFINED (__Interrupt144)?ABSOLUTE (__Interrupt144):ABSOLUTE (__DefaultInterrupt)
                  0x001263          0x2 SHORT 0x4
                  0x001264          0x2 SHORT 0x0 ((DEFINED (__Interrupt144)?ABSOLUTE (__Interrupt144):ABSOLUTE (__DefaultInterrupt) >> 0x10) & 0x7f)
                  0x001265          0x2 SHORT 0x0
                  0x001266          0x2 SHORT 0x13e8 DEFINED (__PTGSTEPInterrupt)?ABSOLUTE (__PTGSTEPInterrupt):ABSOLUTE (__DefaultInterrupt)
                  0x001267          0x2 SHORT 0x4
                  0x001268          0x2 SHORT 0x0 ((DEFINED (__PTGSTEPInterrupt)?ABSOLUTE (__PTGSTEPInterrupt):ABSOLUTE (__DefaultInterrupt) >> 0x10) & 0x7f)
                  0x001269          0x2 SHORT 0x0
                  0x00126a          0x2 SHORT 0x13e8 DEFINED (__PTGWDTInterrupt)?ABSOLUTE (__PTGWDTInterrupt):ABSOLUTE (__DefaultInterrupt)
                  0x00126b          0x2 SHORT 0x4
                  0x00126c          0x2 SHORT 0x0 ((DEFINED (__PTGWDTInterrupt)?ABSOLUTE (__PTGWDTInterrupt):ABSOLUTE (__DefaultInterrupt) >> 0x10) & 0x7f)
                  0x00126d          0x2 SHORT 0x0
                  0x00126e          0x2 SHORT 0x13e8 DEFINED (__PTG0Interrupt)?ABSOLUTE (__PTG0Interrupt):ABSOLUTE (__DefaultInterrupt)
                  0x00126f          0x2 SHORT 0x4
                  0x001270          0x2 SHORT 0x0 ((DEFINED (__PTG0Interrupt)?ABSOLUTE (__PTG0Interrupt):ABSOLUTE (__DefaultInterrupt) >> 0x10) & 0x7f)
                  0x001271          0x2 SHORT 0x0
                  0x001272          0x2 SHORT 0x13e8 DEFINED (__PTG1Interrupt)?ABSOLUTE (__PTG1Interrupt):ABSOLUTE (__DefaultInterrupt)
                  0x001273          0x2 SHORT 0x4
                  0x001274          0x2 SHORT 0x0 ((DEFINED (__PTG1Interrupt)?ABSOLUTE (__PTG1Interrupt):ABSOLUTE (__DefaultInterrupt) >> 0x10) & 0x7f)
                  0x001275          0x2 SHORT 0x0
                  0x001276          0x2 SHORT 0x13e8 DEFINED (__PTG2Interrupt)?ABSOLUTE (__PTG2Interrupt):ABSOLUTE (__DefaultInterrupt)
                  0x001277          0x2 SHORT 0x4
                  0x001278          0x2 SHORT 0x0 ((DEFINED (__PTG2Interrupt)?ABSOLUTE (__PTG2Interrupt):ABSOLUTE (__DefaultInterrupt) >> 0x10) & 0x7f)
                  0x001279          0x2 SHORT 0x0
                  0x00127a          0x2 SHORT 0x13e8 DEFINED (__PTG3Interrupt)?ABSOLUTE (__PTG3Interrupt):ABSOLUTE (__DefaultInterrupt)
                  0x00127b          0x2 SHORT 0x4
                  0x00127c          0x2 SHORT 0x0 ((DEFINED (__PTG3Interrupt)?ABSOLUTE (__PTG3Interrupt):ABSOLUTE (__DefaultInterrupt) >> 0x10) & 0x7f)
                  0x00127d          0x2 SHORT 0x0

.text             0x001300       0x1266
 *(.init)
 .init            0x001300         0x32 c:/program files (x86)/microchip/xc16/v1.20/bin/bin/../../lib\libpic30-coff.a(crt0_extendedep.o)
                  0x001300                  _resetPRI
                  0x001300                  _reset
                  0x001326                  _psv_init
 .init            0x001332         0x1c c:/program files (x86)/microchip/xc16/v1.20/bin/bin/../../lib\libpic30-coff.a(delay32ep.o)
                  0x001332                  __delay32
 .init            0x00134e         0x9a c:/program files (x86)/microchip/xc16/v1.20/bin/bin/../../lib\libpic30-coff.a(data_init_extendedep.o)
                  0x00134e                  _data_init
                  0x00134e                  _data_init_extended
 *(.user_init)
 *(.handle)
 *(.isr*)
 .isr             0x0013e8          0x4 default_isr
                  0x0013e8                  _DefaultInterrupt
 *(.libc)
 .libc            0x0013ec         0x68 c:/program files (x86)/microchip/xc16/v1.20/bin/bin/../../lib\libpic30-coff.a(writeep.o)
                  0x0013f4                  write
 *(.libm)
 .libm            0x001454         0x20 c:/program files (x86)/microchip/xc16/v1.20/bin/bin/../../lib\libm-coff.a(udivsi3.epo)
                  0x001454                  __udivsi3
 .libm            0x001474          0x6 c:/program files (x86)/microchip/xc16/v1.20/bin/bin/../../lib\libm-coff.a(umodsi3.epo)
                  0x001474                  __umodsi3
 .libm            0x00147a          0x4 c:/program files (x86)/microchip/xc16/v1.20/bin/bin/../../lib\libm-coff.a(floatunsisf.epo)
                  0x00147a                  __floatunsisf
 .libm            0x00147e         0x36 c:/program files (x86)/microchip/xc16/v1.20/bin/bin/../../lib\libm-coff.a(fixunssfsi.epo)
                  0x00147e                  __fixunssfsi
 .libm            0x0014b4          0x6 c:/program files (x86)/microchip/xc16/v1.20/bin/bin/../../lib\libm-coff.a(floatsisf.epo)
                  0x0014b4                  __floatsisf
 .libm            0x0014ba         0x84 c:/program files (x86)/microchip/xc16/v1.20/bin/bin/../../lib\libm-coff.a(divsf3.epo)
                  0x0014ba                  __divsf3
 .libm            0x00153e          0x4 c:/program files (x86)/microchip/xc16/v1.20/bin/bin/../../lib\libm-coff.a(feqltle.epo)
                  0x00153e                  __eqsf2
                  0x00153e                  __ltsf2
                  0x00153e                  __lesf2
 .libm            0x001542          0x4 c:/program files (x86)/microchip/xc16/v1.20/bin/bin/../../lib\libm-coff.a(fne.epo)
                  0x001542                  __nesf2
 .libm            0x001546         0xbc c:/program files (x86)/microchip/xc16/v1.20/bin/bin/../../lib\libm-coff.a(addsf3.epo)
                  0x001546                  __subsf3
                  0x001548                  __addsf3
 .libm            0x001602         0x68 c:/program files (x86)/microchip/xc16/v1.20/bin/bin/../../lib\libm-coff.a(mulsf3.epo)
                  0x001602                  __mulsf3
 .libm            0x00166a          0x4 c:/program files (x86)/microchip/xc16/v1.20/bin/bin/../../lib\libm-coff.a(sinf.epo)
                  0x00166a                  sinf
 .libm            0x00166e         0x42 c:/program files (x86)/microchip/xc16/v1.20/bin/bin/../../lib\libm-coff.a(fixsfsi.epo)
                  0x00166e                  __fixsfsi
 .libm            0x0016b0          0x4 c:/program files (x86)/microchip/xc16/v1.20/bin/bin/../../lib\libm-coff.a(fgtge.epo)
                  0x0016b0                  __gesf2
                  0x0016b0                  __gtsf2
 .libm            0x0016b4        0x204 c:/program files (x86)/microchip/xc16/v1.20/bin/bin/../../lib\libm-coff.a(divmoddi3.epo)
                  0x00171c                  __udivmoddi3
                  0x00179a                  __udivdi3
                  0x0017ac                  __umoddi3
                  0x0017b8                  __divdi3
                  0x0017ea                  __moddi3
 .libm            0x0018b8         0x5e c:/program files (x86)/microchip/xc16/v1.20/bin/bin/../../lib\libm-coff.a(floatundisf.epo)
                  0x0018b8                  __floatundisf
 .libm            0x001916         0x2a c:/program files (x86)/microchip/xc16/v1.20/bin/bin/../../lib\libm-coff.a(funpack.epo)
                  0x001916                  _funpack
 .libm            0x001940         0x20 c:/program files (x86)/microchip/xc16/v1.20/bin/bin/../../lib\libm-coff.a(floatdisf.epo)
                  0x001940                  __floatdisf
 .libm            0x001960         0x10 c:/program files (x86)/microchip/xc16/v1.20/bin/bin/../../lib\libm-coff.a(funpack2.epo)
                  0x001960                  _funpack2
 .libm            0x001970         0x20 c:/program files (x86)/microchip/xc16/v1.20/bin/bin/../../lib\libm-coff.a(futil.epo)
                  0x001970                  _fPropagateNaN
                  0x001982                  _fbopExit
                  0x00198a                  _fbopReturnNaN
 .libm            0x001990         0x4c c:/program files (x86)/microchip/xc16/v1.20/bin/bin/../../lib\libm-coff.a(fpack.epo)
                  0x001990                  _fpack
 .libm            0x0019dc         0x36 c:/program files (x86)/microchip/xc16/v1.20/bin/bin/../../lib\libm-coff.a(fcompare.epo)
                  0x0019dc                  _fcompare
 .libm            0x001a12         0xd2 c:/program files (x86)/microchip/xc16/v1.20/bin/bin/../../lib\libm-coff.a(sincosf.epo)
                  0x001a12                  _sincosf
 .libm            0x001ae4          0x4 c:/program files (x86)/microchip/xc16/v1.20/bin/bin/../../lib\libm-coff.a(fmodf.epo)
                  0x001ae4                  fmodf
 .libm            0x001ae8         0x9e c:/program files (x86)/microchip/xc16/v1.20/bin/bin/../../lib\libm-coff.a(fmodrem.epo)
                  0x001ae8                  _fmodrem
 .libm            0x001b86          0xc c:/program files (x86)/microchip/xc16/v1.20/bin/bin/../../lib\libm-coff.a(mulsi3.epo)
                  0x001b86                  __mulp32peds3
                  0x001b86                  __mulsi3
                  0x001b86                  __mulp32eds3
 .libm            0x001b92         0x56 c:/program files (x86)/microchip/xc16/v1.20/bin/bin/../../lib\libm-coff.a(muldi3.epo)
                  0x001b92                  __muldi3
 .libm            0x001be8         0x44 c:/program files (x86)/microchip/xc16/v1.20/bin/bin/../../lib\libm-coff.a(umuldi3.epo)
                  0x001be8                  __umuldi3
 *(.libdsp)
 *(.lib*)
 .libperi         0x001c2c          0xe c:/program files (x86)/microchip/xc16/v1.20/bin/bin/../../lib/PIC24E\libp24EP256MC206-coff.a(OpenHSPWM.o)
                  0x001c2c                  OpenHSPWM
 .libperi         0x001c3a          0xe c:/program files (x86)/microchip/xc16/v1.20/bin/bin/../../lib/PIC24E\libp24EP256MC206-coff.a(ConfigHSPWM1.o)
                  0x001c3a                  ConfigHSPWM1
 .libperi         0x001c48          0x8 c:/program files (x86)/microchip/xc16/v1.20/bin/bin/../../lib/PIC24E\libp24EP256MC206-coff.a(SetHSPWMDutyCycle1.o)
                  0x001c48                  SetHSPWMDutyCycle1
 .libperi         0x001c50          0xa c:/program files (x86)/microchip/xc16/v1.20/bin/bin/../../lib/PIC24E\libp24EP256MC206-coff.a(SetHSPWMDeadTime1.o)
                  0x001c50                  SetHSPWMDeadTime1
 .libc.memcpy.memcpy
                  0x001c5a         0x12 c:/program files (x86)/microchip/xc16/v1.20/bin/bin/../../lib\libc-coff.a(memcpy.epo)
                  0x001c5a                  memcpy
 .libc._printf_cdnopsuxX._printf_cdnopsuxX
                  0x001c6c          0xe c:/program files (x86)/microchip/xc16/v1.20/bin/bin/../../lib\libc-coff.a(printf_cdnopsuxX.EPo)
                  0x001c6c                  _printf_0
                  0x001c6c                  _printf_s
                  0x001c6c                  _printf_cdnopuxX
                  0x001c6c                  _printf_cdnopsuxX
 .libc.fputs.fputs
                  0x001c7a         0x20 c:/program files (x86)/microchip/xc16/v1.20/bin/bin/../../lib\libc-coff.a(puts.epo)
                  0x001c7a                  fputs
 .libc.puts.puts
                  0x001c9a         0x18 c:/program files (x86)/microchip/xc16/v1.20/bin/bin/../../lib\libc-coff.a(puts.epo)
                  0x001c9a                  puts
 .libc.strcmp.strcmp
                  0x001cb2         0x12 c:/program files (x86)/microchip/xc16/v1.20/bin/bin/../../lib\libc-coff.a(strcmp.epo)
                  0x001cb2                  strcmp
 .libc.strncmp.strncmp
                  0x001cc4         0x26 c:/program files (x86)/microchip/xc16/v1.20/bin/bin/../../lib\libc-coff.a(strncmp.epo)
                  0x001cc4                  strncmp
 .libc.memset.memset
                  0x001cea         0x12 c:/program files (x86)/microchip/xc16/v1.20/bin/bin/../../lib\libc-coff.a(memset.epo)
                  0x001cea                  memset
 .libc.putchar.putchar
                  0x001cfc          0xa c:/program files (x86)/microchip/xc16/v1.20/bin/bin/../../lib\libc-coff.a(putchar.epo)
                  0x001cfc                  putchar
 .libc.strlen.strlen
                  0x001d06         0x12 c:/program files (x86)/microchip/xc16/v1.20/bin/bin/../../lib\libc-coff.a(strlen.epo)
                  0x001d06                  strlen
 .libc._sprintf_cdnopuxX._sprintf_cdnopuxX
                  0x001d18         0x2a c:/program files (x86)/microchip/xc16/v1.20/bin/bin/../../lib\libc-coff.a(sprintf_cdnopuxX.EPo)
                  0x001d18                  _sprintf_cdnopuxX
 .libc._vfprintf_cdnopsuxX._vfprintf_cdnopsuxX
                  0x001d42        0x718 c:/program files (x86)/microchip/xc16/v1.20/bin/bin/../../lib\libc-coff.a(doprnt_cdnopsuxX.EPo)
                  0x001d42                  _vfprintf_cdnopuxX
                  0x001d42                  _vfprintf_cdnopsuxX
                  0x001d42                  _vfprintf_0
                  0x001d42                  _vfprintf_s
 .libc.fputc.fputc
                  0x00245a         0x8c c:/program files (x86)/microchip/xc16/v1.20/bin/bin/../../lib\libc-coff.a(fputc.epo)
                  0x00245a                  fputc
 .libc._flsbuf._flsbuf
                  0x0024e6         0x80 c:/program files (x86)/microchip/xc16/v1.20/bin/bin/../../lib\libc-coff.a(flsbuf.epo)
                  0x0024e6                  _flsbuf

usercode
 *(usercode)

__FICD
 *(__FICD.sec*)

__FPOR
 *(__FPOR.sec*)

__FWDT
 *(__FWDT.sec*)

__FOSC
 *(__FOSC.sec*)

__FOSCSEL
 *(__FOSCSEL.sec*)

__FGS
 *(__FGS.sec*)

__FUID0
 *(__FUID0.sec*)

__FUID1
 *(__FUID1.sec*)

__FUID2
 *(__FUID2.sec*)

__FUID3
 *(__FUID3.sec*)

.comment
 *(.comment)

.debug_info
 *(.debug_info)
 *(.gnu.linkonce.wi.*)

.debug_abbrev
 *(.debug_abbrev)

.debug_line
 *(.debug_line)

.debug_frame
 *(.debug_frame)

.debug_str
 *(.debug_str)

.debug_loc
 *(.debug_loc)

.debug_macinfo
 *(.debug_macinfo)

.debug_pubnames
 *(.debug_pubnames)

.debug_ranges
 *(.debug_ranges)

.debug_aranges
 *(.debug_aranges)

.ivt              0x000004        0x13e
                  0x000004          0x4 LONG 0x1002 J__OscillatorFail
                  0x000006          0x4 LONG 0x1006 J__AddressError
                  0x000008          0x4 LONG 0x100a J__HardTrapError
                  0x00000a          0x4 LONG 0x100e J__StackError
                  0x00000c          0x4 LONG 0x1012 J__MathError
                  0x00000e          0x4 LONG 0x1016 J__DMACError
                  0x000010          0x4 LONG 0x101a J__SoftTrapError
                  0x000012          0x4 LONG 0x101e J__ReservedTrap7
                  0x000014          0x4 LONG 0x1022 J__INT0Interrupt
                  0x000016          0x4 LONG 0x1026 J__IC1Interrupt
                  0x000018          0x4 LONG 0x102a J__OC1Interrupt
                  0x00001a          0x4 LONG 0x102e J__T1Interrupt
                  0x00001c          0x4 LONG 0x1032 J__DMA0Interrupt
                  0x00001e          0x4 LONG 0x1036 J__IC2Interrupt
                  0x000020          0x4 LONG 0x103a J__OC2Interrupt
                  0x000022          0x4 LONG 0x103e J__T2Interrupt
                  0x000024          0x4 LONG 0x1042 J__T3Interrupt
                  0x000026          0x4 LONG 0x1046 J__SPI1ErrInterrupt
                  0x000028          0x4 LONG 0x104a J__SPI1Interrupt
                  0x00002a          0x4 LONG 0x104e J__U1RXInterrupt
                  0x00002c          0x4 LONG 0x1052 J__U1TXInterrupt
                  0x00002e          0x4 LONG 0x1056 J__AD1Interrupt
                  0x000030          0x4 LONG 0x105a J__DMA1Interrupt
                  0x000032          0x4 LONG 0x105e J__Interrupt15
                  0x000034          0x4 LONG 0x1062 J__SI2C1Interrupt
                  0x000036          0x4 LONG 0x1066 J__MI2C1Interrupt
                  0x000038          0x4 LONG 0x106a J__CM1Interrupt
                  0x00003a          0x4 LONG 0x106e J__CNInterrupt
                  0x00003c          0x4 LONG 0x1072 J__INT1Interrupt
                  0x00003e          0x4 LONG 0x1076 J__Interrupt21
                  0x000040          0x4 LONG 0x107a J__Interrupt22
                  0x000042          0x4 LONG 0x107e J__Interrupt23
                  0x000044          0x4 LONG 0x1082 J__DMA2Interrupt
                  0x000046          0x4 LONG 0x1086 J__OC3Interrupt
                  0x000048          0x4 LONG 0x108a J__OC4Interrupt
                  0x00004a          0x4 LONG 0x108e J__T4Interrupt
                  0x00004c          0x4 LONG 0x1092 J__T5Interrupt
                  0x00004e          0x4 LONG 0x1096 J__INT2Interrupt
                  0x000050          0x4 LONG 0x109a J__U2RXInterrupt
                  0x000052          0x4 LONG 0x109e J__U2TXInterrupt
                  0x000054          0x4 LONG 0x10a2 J__SPI2ErrInterrupt
                  0x000056          0x4 LONG 0x10a6 J__SPI2Interrupt
                  0x000058          0x4 LONG 0x10aa J__Interrupt34
                  0x00005a          0x4 LONG 0x10ae J__Interrupt35
                  0x00005c          0x4 LONG 0x10b2 J__DMA3Interrupt
                  0x00005e          0x4 LONG 0x10b6 J__IC3Interrupt
                  0x000060          0x4 LONG 0x10ba J__IC4Interrupt
                  0x000062          0x4 LONG 0x10be J__Interrupt39
                  0x000064          0x4 LONG 0x10c2 J__Interrupt40
                  0x000066          0x4 LONG 0x10c6 J__Interrupt41
                  0x000068          0x4 LONG 0x10ca J__Interrupt42
                  0x00006a          0x4 LONG 0x10ce J__Interrupt43
                  0x00006c          0x4 LONG 0x10d2 J__Interrupt44
                  0x00006e          0x4 LONG 0x10d6 J__Interrupt45
                  0x000070          0x4 LONG 0x10da J__Interrupt46
                  0x000072          0x4 LONG 0x10de J__Interrupt47
                  0x000074          0x4 LONG 0x10e2 J__Interrupt48
                  0x000076          0x4 LONG 0x10e6 J__SI2C2Interrupt
                  0x000078          0x4 LONG 0x10ea J__MI2C2Interrupt
                  0x00007a          0x4 LONG 0x10ee J__Interrupt51
                  0x00007c          0x4 LONG 0x10f2 J__Interrupt52
                  0x00007e          0x4 LONG 0x10f6 J__Interrupt53
                  0x000080          0x4 LONG 0x10fa J__Interrupt54
                  0x000082          0x4 LONG 0x10fe J__Interrupt55
                  0x000084          0x4 LONG 0x1102 J__Interrupt56
                  0x000086          0x4 LONG 0x1106 J__PWMSpEventMatchInterrupt
                  0x000088          0x4 LONG 0x110a J__QEI1Interrupt
                  0x00008a          0x4 LONG 0x110e J__Interrupt59
                  0x00008c          0x4 LONG 0x1112 J__Interrupt60
                  0x00008e          0x4 LONG 0x1116 J__Interrupt61
                  0x000090          0x4 LONG 0x111a J__Interrupt62
                  0x000092          0x4 LONG 0x111e J__Interrupt63
                  0x000094          0x4 LONG 0x1122 J__Interrupt64
                  0x000096          0x4 LONG 0x1126 J__U1ErrInterrupt
                  0x000098          0x4 LONG 0x112a J__U2ErrInterrupt
                  0x00009a          0x4 LONG 0x112e J__CRCInterrupt
                  0x00009c          0x4 LONG 0x1132 J__Interrupt68
                  0x00009e          0x4 LONG 0x1136 J__Interrupt69
                  0x0000a0          0x4 LONG 0x113a J__Interrupt70
                  0x0000a2          0x4 LONG 0x113e J__Interrupt71
                  0x0000a4          0x4 LONG 0x1142 J__Interrupt72
                  0x0000a6          0x4 LONG 0x1146 J__Interrupt73
                  0x0000a8          0x4 LONG 0x114a J__Interrupt74
                  0x0000aa          0x4 LONG 0x114e J__Interrupt75
                  0x0000ac          0x4 LONG 0x1152 J__Interrupt76
                  0x0000ae          0x4 LONG 0x1156 J__CTMUInterrupt
                  0x0000b0          0x4 LONG 0x115a J__Interrupt78
                  0x0000b2          0x4 LONG 0x115e J__Interrupt79
                  0x0000b4          0x4 LONG 0x1162 J__Interrupt80
                  0x0000b6          0x4 LONG 0x1166 J__Interrupt81
                  0x0000b8          0x4 LONG 0x116a J__Interrupt82
                  0x0000ba          0x4 LONG 0x116e J__Interrupt83
                  0x0000bc          0x4 LONG 0x1172 J__Interrupt84
                  0x0000be          0x4 LONG 0x1176 J__Interrupt85
                  0x0000c0          0x4 LONG 0x117a J__Interrupt86
                  0x0000c2          0x4 LONG 0x117e J__Interrupt87
                  0x0000c4          0x4 LONG 0x1182 J__Interrupt88
                  0x0000c6          0x4 LONG 0x1186 J__Interrupt89
                  0x0000c8          0x4 LONG 0x118a J__Interrupt90
                  0x0000ca          0x4 LONG 0x118e J__Interrupt91
                  0x0000cc          0x4 LONG 0x1192 J__Interrupt92
                  0x0000ce          0x4 LONG 0x1196 J__Interrupt93
                  0x0000d0          0x4 LONG 0x119a J__PWM1Interrupt
                  0x0000d2          0x4 LONG 0x119e J__PWM2Interrupt
                  0x0000d4          0x4 LONG 0x11a2 J__PWM3Interrupt
                  0x0000d6          0x4 LONG 0x11a6 J__Interrupt97
                  0x0000d8          0x4 LONG 0x11aa J__Interrupt98
                  0x0000da          0x4 LONG 0x11ae J__Interrupt99
                  0x0000dc          0x4 LONG 0x11b2 J__Interrupt100
                  0x0000de          0x4 LONG 0x11b6 J__Interrupt101
                  0x0000e0          0x4 LONG 0x11ba J__Interrupt102
                  0x0000e2          0x4 LONG 0x11be J__Interrupt103
                  0x0000e4          0x4 LONG 0x11c2 J__Interrupt104
                  0x0000e6          0x4 LONG 0x11c6 J__Interrupt105
                  0x0000e8          0x4 LONG 0x11ca J__Interrupt106
                  0x0000ea          0x4 LONG 0x11ce J__Interrupt107
                  0x0000ec          0x4 LONG 0x11d2 J__Interrupt108
                  0x0000ee          0x4 LONG 0x11d6 J__Interrupt109
                  0x0000f0          0x4 LONG 0x11da J__Interrupt110
                  0x0000f2          0x4 LONG 0x11de J__Interrupt111
                  0x0000f4          0x4 LONG 0x11e2 J__Interrupt112
                  0x0000f6          0x4 LONG 0x11e6 J__Interrupt113
                  0x0000f8          0x4 LONG 0x11ea J__Interrupt114
                  0x0000fa          0x4 LONG 0x11ee J__Interrupt115
                  0x0000fc          0x4 LONG 0x11f2 J__Interrupt116
                  0x0000fe          0x4 LONG 0x11f6 J__Interrupt117
                  0x000100          0x4 LONG 0x11fa J__Interrupt118
                  0x000102          0x4 LONG 0x11fe J__Interrupt119
                  0x000104          0x4 LONG 0x1202 J__Interrupt120
                  0x000106          0x4 LONG 0x1206 J__Interrupt121
                  0x000108          0x4 LONG 0x120a J__Interrupt122
                  0x00010a          0x4 LONG 0x120e J__Interrupt123
                  0x00010c          0x4 LONG 0x1212 J__Interrupt124
                  0x00010e          0x4 LONG 0x1216 J__Interrupt125
                  0x000110          0x4 LONG 0x121a J__Interrupt126
                  0x000112          0x4 LONG 0x121e J__Interrupt127
                  0x000114          0x4 LONG 0x1222 J__Interrupt128
                  0x000116          0x4 LONG 0x1226 J__Interrupt129
                  0x000118          0x4 LONG 0x122a J__Interrupt130
                  0x00011a          0x4 LONG 0x122e J__Interrupt131
                  0x00011c          0x4 LONG 0x1232 J__Interrupt132
                  0x00011e          0x4 LONG 0x1236 J__Interrupt133
                  0x000120          0x4 LONG 0x123a J__Interrupt134
                  0x000122          0x4 LONG 0x123e J__Interrupt135
                  0x000124          0x4 LONG 0x1242 J__Interrupt136
                  0x000126          0x4 LONG 0x1246 J__Interrupt137
                  0x000128          0x4 LONG 0x124a J__Interrupt138
                  0x00012a          0x4 LONG 0x124e J__Interrupt139
                  0x00012c          0x4 LONG 0x1252 J__Interrupt140
                  0x00012e          0x4 LONG 0x1256 J__Interrupt141
                  0x000130          0x4 LONG 0x125a J__ICDInterrupt
                  0x000132          0x4 LONG 0x125e J__JTAGInterrupt
                  0x000134          0x4 LONG 0x1262 J__Interrupt144
                  0x000136          0x4 LONG 0x1266 J__PTGSTEPInterrupt
                  0x000138          0x4 LONG 0x126a J__PTGWDTInterrupt
                  0x00013a          0x4 LONG 0x126e J__PTG0Interrupt
                  0x00013c          0x4 LONG 0x1272 J__PTG1Interrupt
                  0x00013e          0x4 LONG 0x1276 J__PTG2Interrupt
                  0x000140          0x4 LONG 0x127a J__PTG3Interrupt
                    0x0000                  WREG0 = 0x0
                    0x0000                  _WREG0 = 0x0
                    0x0002                  WREG1 = 0x2
                    0x0002                  _WREG1 = 0x2
                    0x0004                  WREG2 = 0x4
                    0x0004                  _WREG2 = 0x4
                    0x0006                  WREG3 = 0x6
                    0x0006                  _WREG3 = 0x6
                    0x0008                  WREG4 = 0x8
                    0x0008                  _WREG4 = 0x8
                    0x000a                  WREG5 = 0xa
                    0x000a                  _WREG5 = 0xa
                    0x000c                  WREG6 = 0xc
                    0x000c                  _WREG6 = 0xc
                    0x000e                  WREG7 = 0xe
                    0x000e                  _WREG7 = 0xe
                    0x0010                  WREG8 = 0x10
                    0x0010                  _WREG8 = 0x10
                    0x0012                  WREG9 = 0x12
                    0x0012                  _WREG9 = 0x12
                    0x0014                  WREG10 = 0x14
                    0x0014                  _WREG10 = 0x14
                    0x0016                  WREG11 = 0x16
                    0x0016                  _WREG11 = 0x16
                    0x0018                  WREG12 = 0x18
                    0x0018                  _WREG12 = 0x18
                    0x001a                  WREG13 = 0x1a
                    0x001a                  _WREG13 = 0x1a
                    0x001c                  WREG14 = 0x1c
                    0x001c                  _WREG14 = 0x1c
                    0x001e                  WREG15 = 0x1e
                    0x001e                  _WREG15 = 0x1e
                    0x0020                  SPLIM = 0x20
                    0x0020                  _SPLIM = 0x20
                    0x002e                  PCL = 0x2e
                    0x002e                  _PCL = 0x2e
                    0x0030                  PCH = 0x30
                    0x0030                  _PCH = 0x30
                    0x0032                  DSRPAG = 0x32
                    0x0032                  _DSRPAG = 0x32
                    0x0032                  _DSRPAGbits = 0x32
                    0x0034                  DSWPAG = 0x34
                    0x0034                  _DSWPAG = 0x34
                    0x0034                  _DSWPAGbits = 0x34
                    0x0036                  RCOUNT = 0x36
                    0x0036                  _RCOUNT = 0x36
                    0x0042                  SR = 0x42
                    0x0042                  _SR = 0x42
                    0x0042                  _SRbits = 0x42
                    0x0044                  CORCON = 0x44
                    0x0044                  _CORCON = 0x44
                    0x0044                  _CORCONbits = 0x44
                    0x0052                  DISICNT = 0x52
                    0x0052                  _DISICNT = 0x52
                    0x0054                  TBLPAG = 0x54
                    0x0054                  _TBLPAG = 0x54
                    0x0054                  _TBLPAGbits = 0x54
                    0x0058                  MSTRPR = 0x58
                    0x0058                  _MSTRPR = 0x58
                    0x0100                  TMR1 = 0x100
                    0x0100                  _TMR1 = 0x100
                    0x0102                  PR1 = 0x102
                    0x0102                  _PR1 = 0x102
                    0x0104                  T1CON = 0x104
                    0x0104                  _T1CON = 0x104
                    0x0104                  _T1CONbits = 0x104
                    0x0106                  TMR2 = 0x106
                    0x0106                  _TMR2 = 0x106
                    0x0108                  TMR3HLD = 0x108
                    0x0108                  _TMR3HLD = 0x108
                    0x010a                  TMR3 = 0x10a
                    0x010a                  _TMR3 = 0x10a
                    0x010c                  PR2 = 0x10c
                    0x010c                  _PR2 = 0x10c
                    0x010e                  PR3 = 0x10e
                    0x010e                  _PR3 = 0x10e
                    0x0110                  T2CON = 0x110
                    0x0110                  _T2CON = 0x110
                    0x0110                  _T2CONbits = 0x110
                    0x0112                  T3CON = 0x112
                    0x0112                  _T3CON = 0x112
                    0x0112                  _T3CONbits = 0x112
                    0x0114                  TMR4 = 0x114
                    0x0114                  _TMR4 = 0x114
                    0x0116                  TMR5HLD = 0x116
                    0x0116                  _TMR5HLD = 0x116
                    0x0118                  TMR5 = 0x118
                    0x0118                  _TMR5 = 0x118
                    0x011a                  PR4 = 0x11a
                    0x011a                  _PR4 = 0x11a
                    0x011c                  PR5 = 0x11c
                    0x011c                  _PR5 = 0x11c
                    0x011e                  T4CON = 0x11e
                    0x011e                  _T4CON = 0x11e
                    0x011e                  _T4CONbits = 0x11e
                    0x0120                  T5CON = 0x120
                    0x0120                  _T5CON = 0x120
                    0x0120                  _T5CONbits = 0x120
                    0x0140                  IC1CON1 = 0x140
                    0x0140                  _IC1CON1 = 0x140
                    0x0140                  _IC1CON1bits = 0x140
                    0x0142                  IC1CON2 = 0x142
                    0x0142                  _IC1CON2 = 0x142
                    0x0142                  _IC1CON2bits = 0x142
                    0x0144                  IC1BUF = 0x144
                    0x0144                  _IC1BUF = 0x144
                    0x0146                  IC1TMR = 0x146
                    0x0146                  _IC1TMR = 0x146
                    0x0148                  IC2CON1 = 0x148
                    0x0148                  _IC2CON1 = 0x148
                    0x0148                  _IC2CON1bits = 0x148
                    0x014a                  IC2CON2 = 0x14a
                    0x014a                  _IC2CON2 = 0x14a
                    0x014a                  _IC2CON2bits = 0x14a
                    0x014c                  IC2BUF = 0x14c
                    0x014c                  _IC2BUF = 0x14c
                    0x014e                  IC2TMR = 0x14e
                    0x014e                  _IC2TMR = 0x14e
                    0x0150                  IC3CON1 = 0x150
                    0x0150                  _IC3CON1 = 0x150
                    0x0150                  _IC3CON1bits = 0x150
                    0x0152                  IC3CON2 = 0x152
                    0x0152                  _IC3CON2 = 0x152
                    0x0152                  _IC3CON2bits = 0x152
                    0x0154                  IC3BUF = 0x154
                    0x0154                  _IC3BUF = 0x154
                    0x0156                  IC3TMR = 0x156
                    0x0156                  _IC3TMR = 0x156
                    0x0158                  IC4CON1 = 0x158
                    0x0158                  _IC4CON1 = 0x158
                    0x0158                  _IC4CON1bits = 0x158
                    0x015a                  IC4CON2 = 0x15a
                    0x015a                  _IC4CON2 = 0x15a
                    0x015a                  _IC4CON2bits = 0x15a
                    0x015c                  IC4BUF = 0x15c
                    0x015c                  _IC4BUF = 0x15c
                    0x015e                  IC4TMR = 0x15e
                    0x015e                  _IC4TMR = 0x15e
                    0x01c0                  QEI1CON = 0x1c0
                    0x01c0                  _QEI1CON = 0x1c0
                    0x01c0                  _QEI1CONbits = 0x1c0
                    0x01c2                  QEI1IOC = 0x1c2
                    0x01c2                  _QEI1IOC = 0x1c2
                    0x01c2                  _QEI1IOCbits = 0x1c2
                    0x01c4                  QEI1STAT = 0x1c4
                    0x01c4                  _QEI1STAT = 0x1c4
                    0x01c4                  _QEI1STATbits = 0x1c4
                    0x01c6                  POS1CNTL = 0x1c6
                    0x01c6                  _POS1CNTL = 0x1c6
                    0x01c8                  POS1CNTH = 0x1c8
                    0x01c8                  _POS1CNTH = 0x1c8
                    0x01ca                  POS1HLD = 0x1ca
                    0x01ca                  _POS1HLD = 0x1ca
                    0x01cc                  VEL1CNT = 0x1cc
                    0x01cc                  _VEL1CNT = 0x1cc
                    0x01ce                  INT1TMRL = 0x1ce
                    0x01ce                  _INT1TMRL = 0x1ce
                    0x01d0                  INT1TMRH = 0x1d0
                    0x01d0                  _INT1TMRH = 0x1d0
                    0x01d2                  INT1HLDL = 0x1d2
                    0x01d2                  _INT1HLDL = 0x1d2
                    0x01d4                  INT1HLDH = 0x1d4
                    0x01d4                  _INT1HLDH = 0x1d4
                    0x01d6                  INDX1CNTL = 0x1d6
                    0x01d6                  _INDX1CNTL = 0x1d6
                    0x01d8                  INDX1CNTH = 0x1d8
                    0x01d8                  _INDX1CNTH = 0x1d8
                    0x01da                  INDX1HLD = 0x1da
                    0x01da                  _INDX1HLD = 0x1da
                    0x01dc                  QEI1GECL = 0x1dc
                    0x01dc                  _QEI1GECL = 0x1dc
                    0x01dc                  QEI1ICL = 0x1dc
                    0x01dc                  _QEI1ICL = 0x1dc
                    0x01de                  QEI1GECH = 0x1de
                    0x01de                  _QEI1GECH = 0x1de
                    0x01de                  QEI1ICH = 0x1de
                    0x01de                  _QEI1ICH = 0x1de
                    0x01e0                  QEI1LECL = 0x1e0
                    0x01e0                  _QEI1LECL = 0x1e0
                    0x01e2                  QEI1LECH = 0x1e2
                    0x01e2                  _QEI1LECH = 0x1e2
                    0x0200                  I2C1RCV = 0x200
                    0x0200                  _I2C1RCV = 0x200
                    0x0202                  I2C1TRN = 0x202
                    0x0202                  _I2C1TRN = 0x202
                    0x0204                  I2C1BRG = 0x204
                    0x0204                  _I2C1BRG = 0x204
                    0x0206                  I2C1CON = 0x206
                    0x0206                  _I2C1CON = 0x206
                    0x0206                  _I2C1CONbits = 0x206
                    0x0208                  I2C1STAT = 0x208
                    0x0208                  _I2C1STAT = 0x208
                    0x0208                  _I2C1STATbits = 0x208
                    0x020a                  I2C1ADD = 0x20a
                    0x020a                  _I2C1ADD = 0x20a
                    0x020c                  I2C1MSK = 0x20c
                    0x020c                  _I2C1MSK = 0x20c
                    0x0210                  I2C2RCV = 0x210
                    0x0210                  _I2C2RCV = 0x210
                    0x0212                  I2C2TRN = 0x212
                    0x0212                  _I2C2TRN = 0x212
                    0x0214                  I2C2BRG = 0x214
                    0x0214                  _I2C2BRG = 0x214
                    0x0216                  I2C2CON = 0x216
                    0x0216                  _I2C2CON = 0x216
                    0x0216                  _I2C2CONbits = 0x216
                    0x0218                  I2C2STAT = 0x218
                    0x0218                  _I2C2STAT = 0x218
                    0x0218                  _I2C2STATbits = 0x218
                    0x021a                  I2C2ADD = 0x21a
                    0x021a                  _I2C2ADD = 0x21a
                    0x021c                  I2C2MSK = 0x21c
                    0x021c                  _I2C2MSK = 0x21c
                    0x0220                  U1MODE = 0x220
                    0x0220                  _U1MODE = 0x220
                    0x0220                  _U1MODEbits = 0x220
                    0x0222                  U1STA = 0x222
                    0x0222                  _U1STA = 0x222
                    0x0222                  _U1STAbits = 0x222
                    0x0224                  U1TXREG = 0x224
                    0x0224                  _U1TXREG = 0x224
                    0x0226                  U1RXREG = 0x226
                    0x0226                  _U1RXREG = 0x226
                    0x0228                  U1BRG = 0x228
                    0x0228                  _U1BRG = 0x228
                    0x0230                  U2MODE = 0x230
                    0x0230                  _U2MODE = 0x230
                    0x0230                  _U2MODEbits = 0x230
                    0x0232                  U2STA = 0x232
                    0x0232                  _U2STA = 0x232
                    0x0232                  _U2STAbits = 0x232
                    0x0234                  U2TXREG = 0x234
                    0x0234                  _U2TXREG = 0x234
                    0x0236                  U2RXREG = 0x236
                    0x0236                  _U2RXREG = 0x236
                    0x0238                  U2BRG = 0x238
                    0x0238                  _U2BRG = 0x238
                    0x0240                  SPI1STAT = 0x240
                    0x0240                  _SPI1STAT = 0x240
                    0x0240                  _SPI1STATbits = 0x240
                    0x0242                  SPI1CON1 = 0x242
                    0x0242                  _SPI1CON1 = 0x242
                    0x0242                  _SPI1CON1bits = 0x242
                    0x0244                  SPI1CON2 = 0x244
                    0x0244                  _SPI1CON2 = 0x244
                    0x0244                  _SPI1CON2bits = 0x244
                    0x0248                  SPI1BUF = 0x248
                    0x0248                  _SPI1BUF = 0x248
                    0x0260                  SPI2STAT = 0x260
                    0x0260                  _SPI2STAT = 0x260
                    0x0260                  _SPI2STATbits = 0x260
                    0x0262                  SPI2CON1 = 0x262
                    0x0262                  _SPI2CON1 = 0x262
                    0x0262                  _SPI2CON1bits = 0x262
                    0x0264                  SPI2CON2 = 0x264
                    0x0264                  _SPI2CON2 = 0x264
                    0x0264                  _SPI2CON2bits = 0x264
                    0x0268                  SPI2BUF = 0x268
                    0x0268                  _SPI2BUF = 0x268
                    0x0300                  ADC1BUF0 = 0x300
                    0x0300                  _ADC1BUF0 = 0x300
                    0x0302                  ADC1BUF1 = 0x302
                    0x0302                  _ADC1BUF1 = 0x302
                    0x0304                  ADC1BUF2 = 0x304
                    0x0304                  _ADC1BUF2 = 0x304
                    0x0306                  ADC1BUF3 = 0x306
                    0x0306                  _ADC1BUF3 = 0x306
                    0x0308                  ADC1BUF4 = 0x308
                    0x0308                  _ADC1BUF4 = 0x308
                    0x030a                  ADC1BUF5 = 0x30a
                    0x030a                  _ADC1BUF5 = 0x30a
                    0x030c                  ADC1BUF6 = 0x30c
                    0x030c                  _ADC1BUF6 = 0x30c
                    0x030e                  ADC1BUF7 = 0x30e
                    0x030e                  _ADC1BUF7 = 0x30e
                    0x0310                  ADC1BUF8 = 0x310
                    0x0310                  _ADC1BUF8 = 0x310
                    0x0312                  ADC1BUF9 = 0x312
                    0x0312                  _ADC1BUF9 = 0x312
                    0x0314                  ADC1BUFA = 0x314
                    0x0314                  _ADC1BUFA = 0x314
                    0x0316                  ADC1BUFB = 0x316
                    0x0316                  _ADC1BUFB = 0x316
                    0x0318                  ADC1BUFC = 0x318
                    0x0318                  _ADC1BUFC = 0x318
                    0x031a                  ADC1BUFD = 0x31a
                    0x031a                  _ADC1BUFD = 0x31a
                    0x031c                  ADC1BUFE = 0x31c
                    0x031c                  _ADC1BUFE = 0x31c
                    0x031e                  ADC1BUFF = 0x31e
                    0x031e                  _ADC1BUFF = 0x31e
                    0x0320                  AD1CON1 = 0x320
                    0x0320                  _AD1CON1 = 0x320
                    0x0320                  _AD1CON1bits = 0x320
                    0x0322                  AD1CON2 = 0x322
                    0x0322                  _AD1CON2 = 0x322
                    0x0322                  _AD1CON2bits = 0x322
                    0x0324                  AD1CON3 = 0x324
                    0x0324                  _AD1CON3 = 0x324
                    0x0324                  _AD1CON3bits = 0x324
                    0x0326                  AD1CHS123 = 0x326
                    0x0326                  _AD1CHS123 = 0x326
                    0x0326                  _AD1CHS123bits = 0x326
                    0x0328                  AD1CHS0 = 0x328
                    0x0328                  _AD1CHS0 = 0x328
                    0x0328                  _AD1CHS0bits = 0x328
                    0x032e                  AD1CSSH = 0x32e
                    0x032e                  _AD1CSSH = 0x32e
                    0x032e                  _AD1CSSHbits = 0x32e
                    0x0330                  AD1CSSL = 0x330
                    0x0330                  _AD1CSSL = 0x330
                    0x0330                  _AD1CSSLbits = 0x330
                    0x0332                  AD1CON4 = 0x332
                    0x0332                  _AD1CON4 = 0x332
                    0x0332                  _AD1CON4bits = 0x332
                    0x033a                  CTMUCON1 = 0x33a
                    0x033a                  _CTMUCON1 = 0x33a
                    0x033a                  _CTMUCON1bits = 0x33a
                    0x033c                  CTMUCON2 = 0x33c
                    0x033c                  _CTMUCON2 = 0x33c
                    0x033c                  _CTMUCON2bits = 0x33c
                    0x033e                  CTMUICON = 0x33e
                    0x033e                  _CTMUICON = 0x33e
                    0x033e                  _CTMUICONbits = 0x33e
                    0x0640                  CRCCON1 = 0x640
                    0x0640                  _CRCCON1 = 0x640
                    0x0640                  _CRCCON1bits = 0x640
                    0x0642                  CRCCON2 = 0x642
                    0x0642                  _CRCCON2 = 0x642
                    0x0642                  _CRCCON2bits = 0x642
                    0x0644                  CRCXORL = 0x644
                    0x0644                  _CRCXORL = 0x644
                    0x0644                  _CRCXORLbits = 0x644
                    0x0646                  CRCXORH = 0x646
                    0x0646                  _CRCXORH = 0x646
                    0x0646                  _CRCXORHbits = 0x646
                    0x0648                  CRCDAT = 0x648
                    0x0648                  _CRCDAT = 0x648
                    0x0648                  CRCDATL = 0x648
                    0x0648                  _CRCDATL = 0x648
                    0x064a                  CRCDATH = 0x64a
                    0x064a                  _CRCDATH = 0x64a
                    0x064c                  CRCWDAT = 0x64c
                    0x064c                  _CRCWDAT = 0x64c
                    0x064c                  CRCWDATL = 0x64c
                    0x064c                  _CRCWDATL = 0x64c
                    0x064e                  CRCWDATH = 0x64e
                    0x064e                  _CRCWDATH = 0x64e
                    0x0680                  RPOR0 = 0x680
                    0x0680                  _RPOR0 = 0x680
                    0x0680                  _RPOR0bits = 0x680
                    0x0682                  RPOR1 = 0x682
                    0x0682                  _RPOR1 = 0x682
                    0x0682                  _RPOR1bits = 0x682
                    0x0684                  RPOR2 = 0x684
                    0x0684                  _RPOR2 = 0x684
                    0x0684                  _RPOR2bits = 0x684
                    0x0686                  RPOR3 = 0x686
                    0x0686                  _RPOR3 = 0x686
                    0x0686                  _RPOR3bits = 0x686
                    0x0688                  RPOR4 = 0x688
                    0x0688                  _RPOR4 = 0x688
                    0x0688                  _RPOR4bits = 0x688
                    0x068a                  RPOR5 = 0x68a
                    0x068a                  _RPOR5 = 0x68a
                    0x068a                  _RPOR5bits = 0x68a
                    0x068c                  RPOR6 = 0x68c
                    0x068c                  _RPOR6 = 0x68c
                    0x068c                  _RPOR6bits = 0x68c
                    0x068e                  RPOR7 = 0x68e
                    0x068e                  _RPOR7 = 0x68e
                    0x068e                  _RPOR7bits = 0x68e
                    0x0690                  RPOR8 = 0x690
                    0x0690                  _RPOR8 = 0x690
                    0x0690                  _RPOR8bits = 0x690
                    0x0692                  RPOR9 = 0x692
                    0x0692                  _RPOR9 = 0x692
                    0x0692                  _RPOR9bits = 0x692
                    0x06a0                  RPINR0 = 0x6a0
                    0x06a0                  _RPINR0 = 0x6a0
                    0x06a0                  _RPINR0bits = 0x6a0
                    0x06a2                  RPINR1 = 0x6a2
                    0x06a2                  _RPINR1 = 0x6a2
                    0x06a2                  _RPINR1bits = 0x6a2
                    0x06a6                  RPINR3 = 0x6a6
                    0x06a6                  _RPINR3 = 0x6a6
                    0x06a6                  _RPINR3bits = 0x6a6
                    0x06ae                  RPINR7 = 0x6ae
                    0x06ae                  _RPINR7 = 0x6ae
                    0x06ae                  _RPINR7bits = 0x6ae
                    0x06b0                  RPINR8 = 0x6b0
                    0x06b0                  _RPINR8 = 0x6b0
                    0x06b0                  _RPINR8bits = 0x6b0
                    0x06b6                  RPINR11 = 0x6b6
                    0x06b6                  _RPINR11 = 0x6b6
                    0x06b6                  _RPINR11bits = 0x6b6
                    0x06b8                  RPINR12 = 0x6b8
                    0x06b8                  _RPINR12 = 0x6b8
                    0x06b8                  _RPINR12bits = 0x6b8
                    0x06bc                  RPINR14 = 0x6bc
                    0x06bc                  _RPINR14 = 0x6bc
                    0x06bc                  _RPINR14bits = 0x6bc
                    0x06be                  RPINR15 = 0x6be
                    0x06be                  _RPINR15 = 0x6be
                    0x06be                  _RPINR15bits = 0x6be
                    0x06c4                  RPINR18 = 0x6c4
                    0x06c4                  _RPINR18 = 0x6c4
                    0x06c4                  _RPINR18bits = 0x6c4
                    0x06c6                  RPINR19 = 0x6c6
                    0x06c6                  _RPINR19 = 0x6c6
                    0x06c6                  _RPINR19bits = 0x6c6
                    0x06cc                  RPINR22 = 0x6cc
                    0x06cc                  _RPINR22 = 0x6cc
                    0x06cc                  _RPINR22bits = 0x6cc
                    0x06ce                  RPINR23 = 0x6ce
                    0x06ce                  _RPINR23 = 0x6ce
                    0x06ce                  _RPINR23bits = 0x6ce
                    0x06ea                  RPINR37 = 0x6ea
                    0x06ea                  _RPINR37 = 0x6ea
                    0x06ea                  _RPINR37bits = 0x6ea
                    0x06ec                  RPINR38 = 0x6ec
                    0x06ec                  _RPINR38 = 0x6ec
                    0x06ec                  _RPINR38bits = 0x6ec
                    0x06ee                  RPINR39 = 0x6ee
                    0x06ee                  _RPINR39 = 0x6ee
                    0x06ee                  _RPINR39bits = 0x6ee
                    0x0728                  NVMCON = 0x728
                    0x0728                  _NVMCON = 0x728
                    0x0728                  _NVMCONbits = 0x728
                    0x072a                  NVMADR = 0x72a
                    0x072a                  _NVMADR = 0x72a
                    0x072c                  NVMADRU = 0x72c
                    0x072c                  _NVMADRU = 0x72c
                    0x072c                  _NVMADRUbits = 0x72c
                    0x072e                  NVMKEY = 0x72e
                    0x072e                  _NVMKEY = 0x72e
                    0x0740                  RCON = 0x740
                    0x0740                  _RCON = 0x740
                    0x0740                  _RCONbits = 0x740
                    0x0742                  OSCCON = 0x742
                    0x0742                  _OSCCON = 0x742
                    0x0742                  _OSCCONbits = 0x742
                    0x0742                  OSCCONL = 0x742
                    0x0742                  _OSCCONL = 0x742
                    0x0743                  OSCCONH = 0x743
                    0x0743                  _OSCCONH = 0x743
                    0x0744                  CLKDIV = 0x744
                    0x0744                  _CLKDIV = 0x744
                    0x0744                  _CLKDIVbits = 0x744
                    0x0746                  PLLFBD = 0x746
                    0x0746                  _PLLFBD = 0x746
                    0x0746                  _PLLFBDbits = 0x746
                    0x0748                  OSCTUN = 0x748
                    0x0748                  _OSCTUN = 0x748
                    0x0748                  _OSCTUNbits = 0x748
                    0x074e                  REFOCON = 0x74e
                    0x074e                  _REFOCON = 0x74e
                    0x074e                  _REFOCONbits = 0x74e
                    0x0760                  PMD1 = 0x760
                    0x0760                  _PMD1 = 0x760
                    0x0760                  _PMD1bits = 0x760
                    0x0762                  PMD2 = 0x762
                    0x0762                  _PMD2 = 0x762
                    0x0762                  _PMD2bits = 0x762
                    0x0764                  PMD3 = 0x764
                    0x0764                  _PMD3 = 0x764
                    0x0764                  _PMD3bits = 0x764
                    0x0766                  PMD4 = 0x766
                    0x0766                  _PMD4 = 0x766
                    0x0766                  _PMD4bits = 0x766
                    0x076a                  PMD6 = 0x76a
                    0x076a                  _PMD6 = 0x76a
                    0x076a                  _PMD6bits = 0x76a
                    0x076c                  PMD7 = 0x76c
                    0x076c                  _PMD7 = 0x76c
                    0x076c                  _PMD7bits = 0x76c
                    0x0800                  IFS0 = 0x800
                    0x0800                  _IFS0 = 0x800
                    0x0800                  _IFS0bits = 0x800
                    0x0802                  IFS1 = 0x802
                    0x0802                  _IFS1 = 0x802
                    0x0802                  _IFS1bits = 0x802
                    0x0804                  IFS2 = 0x804
                    0x0804                  _IFS2 = 0x804
                    0x0804                  _IFS2bits = 0x804
                    0x0806                  IFS3 = 0x806
                    0x0806                  _IFS3 = 0x806
                    0x0806                  _IFS3bits = 0x806
                    0x0808                  IFS4 = 0x808
                    0x0808                  _IFS4 = 0x808
                    0x0808                  _IFS4bits = 0x808
                    0x080a                  IFS5 = 0x80a
                    0x080a                  _IFS5 = 0x80a
                    0x080a                  _IFS5bits = 0x80a
                    0x080c                  IFS6 = 0x80c
                    0x080c                  _IFS6 = 0x80c
                    0x080c                  _IFS6bits = 0x80c
                    0x0810                  IFS8 = 0x810
                    0x0810                  _IFS8 = 0x810
                    0x0810                  _IFS8bits = 0x810
                    0x0812                  IFS9 = 0x812
                    0x0812                  _IFS9 = 0x812
                    0x0812                  _IFS9bits = 0x812
                    0x0820                  IEC0 = 0x820
                    0x0820                  _IEC0 = 0x820
                    0x0820                  _IEC0bits = 0x820
                    0x0822                  IEC1 = 0x822
                    0x0822                  _IEC1 = 0x822
                    0x0822                  _IEC1bits = 0x822
                    0x0824                  IEC2 = 0x824
                    0x0824                  _IEC2 = 0x824
                    0x0824                  _IEC2bits = 0x824
                    0x0826                  IEC3 = 0x826
                    0x0826                  _IEC3 = 0x826
                    0x0826                  _IEC3bits = 0x826
                    0x0828                  IEC4 = 0x828
                    0x0828                  _IEC4 = 0x828
                    0x0828                  _IEC4bits = 0x828
                    0x082a                  IEC5 = 0x82a
                    0x082a                  _IEC5 = 0x82a
                    0x082a                  _IEC5bits = 0x82a
                    0x082c                  IEC6 = 0x82c
                    0x082c                  _IEC6 = 0x82c
                    0x082c                  _IEC6bits = 0x82c
                    0x0830                  IEC8 = 0x830
                    0x0830                  _IEC8 = 0x830
                    0x0830                  _IEC8bits = 0x830
                    0x0832                  IEC9 = 0x832
                    0x0832                  _IEC9 = 0x832
                    0x0832                  _IEC9bits = 0x832
                    0x0840                  IPC0 = 0x840
                    0x0840                  _IPC0 = 0x840
                    0x0840                  _IPC0bits = 0x840
                    0x0842                  IPC1 = 0x842
                    0x0842                  _IPC1 = 0x842
                    0x0842                  _IPC1bits = 0x842
                    0x0844                  IPC2 = 0x844
                    0x0844                  _IPC2 = 0x844
                    0x0844                  _IPC2bits = 0x844
                    0x0846                  IPC3 = 0x846
                    0x0846                  _IPC3 = 0x846
                    0x0846                  _IPC3bits = 0x846
                    0x0848                  IPC4 = 0x848
                    0x0848                  _IPC4 = 0x848
                    0x0848                  _IPC4bits = 0x848
                    0x084a                  IPC5 = 0x84a
                    0x084a                  _IPC5 = 0x84a
                    0x084a                  _IPC5bits = 0x84a
                    0x084c                  IPC6 = 0x84c
                    0x084c                  _IPC6 = 0x84c
                    0x084c                  _IPC6bits = 0x84c
                    0x084e                  IPC7 = 0x84e
                    0x084e                  _IPC7 = 0x84e
                    0x084e                  _IPC7bits = 0x84e
                    0x0850                  IPC8 = 0x850
                    0x0850                  _IPC8 = 0x850
                    0x0850                  _IPC8bits = 0x850
                    0x0852                  IPC9 = 0x852
                    0x0852                  _IPC9 = 0x852
                    0x0852                  _IPC9bits = 0x852
                    0x0858                  IPC12 = 0x858
                    0x0858                  _IPC12 = 0x858
                    0x0858                  _IPC12bits = 0x858
                    0x085c                  IPC14 = 0x85c
                    0x085c                  _IPC14 = 0x85c
                    0x085c                  _IPC14bits = 0x85c
                    0x0860                  IPC16 = 0x860
                    0x0860                  _IPC16 = 0x860
                    0x0860                  _IPC16bits = 0x860
                    0x0866                  IPC19 = 0x866
                    0x0866                  _IPC19 = 0x866
                    0x0866                  _IPC19bits = 0x866
                    0x086e                  IPC23 = 0x86e
                    0x086e                  _IPC23 = 0x86e
                    0x086e                  _IPC23bits = 0x86e
                    0x0870                  IPC24 = 0x870
                    0x0870                  _IPC24 = 0x870
                    0x0870                  _IPC24bits = 0x870
                    0x0886                  IPC35 = 0x886
                    0x0886                  _IPC35 = 0x886
                    0x0886                  _IPC35bits = 0x886
                    0x0888                  IPC36 = 0x888
                    0x0888                  _IPC36 = 0x888
                    0x0888                  _IPC36bits = 0x888
                    0x088a                  IPC37 = 0x88a
                    0x088a                  _IPC37 = 0x88a
                    0x088a                  _IPC37bits = 0x88a
                    0x08c0                  INTCON1 = 0x8c0
                    0x08c0                  _INTCON1 = 0x8c0
                    0x08c0                  _INTCON1bits = 0x8c0
                    0x08c2                  INTCON2 = 0x8c2
                    0x08c2                  _INTCON2 = 0x8c2
                    0x08c2                  _INTCON2bits = 0x8c2
                    0x08c4                  INTCON3 = 0x8c4
                    0x08c4                  _INTCON3 = 0x8c4
                    0x08c4                  _INTCON3bits = 0x8c4
                    0x08c6                  INTCON4 = 0x8c6
                    0x08c6                  _INTCON4 = 0x8c6
                    0x08c6                  _INTCON4bits = 0x8c6
                    0x08c8                  INTTREG = 0x8c8
                    0x08c8                  _INTTREG = 0x8c8
                    0x08c8                  _INTTREGbits = 0x8c8
                    0x0900                  OC1CON1 = 0x900
                    0x0900                  _OC1CON1 = 0x900
                    0x0900                  _OC1CON1bits = 0x900
                    0x0902                  OC1CON2 = 0x902
                    0x0902                  _OC1CON2 = 0x902
                    0x0902                  _OC1CON2bits = 0x902
                    0x0904                  OC1RS = 0x904
                    0x0904                  _OC1RS = 0x904
                    0x0906                  OC1R = 0x906
                    0x0906                  _OC1R = 0x906
                    0x0908                  OC1TMR = 0x908
                    0x0908                  _OC1TMR = 0x908
                    0x090a                  OC2CON1 = 0x90a
                    0x090a                  _OC2CON1 = 0x90a
                    0x090a                  _OC2CON1bits = 0x90a
                    0x090c                  OC2CON2 = 0x90c
                    0x090c                  _OC2CON2 = 0x90c
                    0x090c                  _OC2CON2bits = 0x90c
                    0x090e                  OC2RS = 0x90e
                    0x090e                  _OC2RS = 0x90e
                    0x0910                  OC2R = 0x910
                    0x0910                  _OC2R = 0x910
                    0x0912                  OC2TMR = 0x912
                    0x0912                  _OC2TMR = 0x912
                    0x0914                  OC3CON1 = 0x914
                    0x0914                  _OC3CON1 = 0x914
                    0x0914                  _OC3CON1bits = 0x914
                    0x0916                  OC3CON2 = 0x916
                    0x0916                  _OC3CON2 = 0x916
                    0x0916                  _OC3CON2bits = 0x916
                    0x0918                  OC3RS = 0x918
                    0x0918                  _OC3RS = 0x918
                    0x091a                  OC3R = 0x91a
                    0x091a                  _OC3R = 0x91a
                    0x091c                  OC3TMR = 0x91c
                    0x091c                  _OC3TMR = 0x91c
                    0x091e                  OC4CON1 = 0x91e
                    0x091e                  _OC4CON1 = 0x91e
                    0x091e                  _OC4CON1bits = 0x91e
                    0x0920                  OC4CON2 = 0x920
                    0x0920                  _OC4CON2 = 0x920
                    0x0920                  _OC4CON2bits = 0x920
                    0x0922                  OC4RS = 0x922
                    0x0922                  _OC4RS = 0x922
                    0x0924                  OC4R = 0x924
                    0x0924                  _OC4R = 0x924
                    0x0926                  OC4TMR = 0x926
                    0x0926                  _OC4TMR = 0x926
                    0x0a80                  CMSTAT = 0xa80
                    0x0a80                  _CMSTAT = 0xa80
                    0x0a80                  _CMSTATbits = 0xa80
                    0x0a82                  CVRCON = 0xa82
                    0x0a82                  _CVRCON = 0xa82
                    0x0a82                  _CVRCONbits = 0xa82
                    0x0a84                  CM1CON = 0xa84
                    0x0a84                  _CM1CON = 0xa84
                    0x0a84                  _CM1CONbits = 0xa84
                    0x0a86                  CM1MSKSRC = 0xa86
                    0x0a86                  _CM1MSKSRC = 0xa86
                    0x0a86                  _CM1MSKSRCbits = 0xa86
                    0x0a88                  CM1MSKCON = 0xa88
                    0x0a88                  _CM1MSKCON = 0xa88
                    0x0a88                  _CM1MSKCONbits = 0xa88
                    0x0a8a                  CM1FLTR = 0xa8a
                    0x0a8a                  _CM1FLTR = 0xa8a
                    0x0a8a                  _CM1FLTRbits = 0xa8a
                    0x0a8c                  CM2CON = 0xa8c
                    0x0a8c                  _CM2CON = 0xa8c
                    0x0a8c                  _CM2CONbits = 0xa8c
                    0x0a8e                  CM2MSKSRC = 0xa8e
                    0x0a8e                  _CM2MSKSRC = 0xa8e
                    0x0a8e                  _CM2MSKSRCbits = 0xa8e
                    0x0a90                  CM2MSKCON = 0xa90
                    0x0a90                  _CM2MSKCON = 0xa90
                    0x0a90                  _CM2MSKCONbits = 0xa90
                    0x0a92                  CM2FLTR = 0xa92
                    0x0a92                  _CM2FLTR = 0xa92
                    0x0a92                  _CM2FLTRbits = 0xa92
                    0x0a94                  CM3CON = 0xa94
                    0x0a94                  _CM3CON = 0xa94
                    0x0a94                  _CM3CONbits = 0xa94
                    0x0a96                  CM3MSKSRC = 0xa96
                    0x0a96                  _CM3MSKSRC = 0xa96
                    0x0a96                  _CM3MSKSRCbits = 0xa96
                    0x0a98                  CM3MSKCON = 0xa98
                    0x0a98                  _CM3MSKCON = 0xa98
                    0x0a98                  _CM3MSKCONbits = 0xa98
                    0x0a9a                  CM3FLTR = 0xa9a
                    0x0a9a                  _CM3FLTR = 0xa9a
                    0x0a9a                  _CM3FLTRbits = 0xa9a
                    0x0a9c                  CM4CON = 0xa9c
                    0x0a9c                  _CM4CON = 0xa9c
                    0x0a9c                  _CM4CONbits = 0xa9c
                    0x0a9e                  CM4MSKSRC = 0xa9e
                    0x0a9e                  _CM4MSKSRC = 0xa9e
                    0x0a9e                  _CM4MSKSRCbits = 0xa9e
                    0x0aa0                  CM4MSKCON = 0xaa0
                    0x0aa0                  _CM4MSKCON = 0xaa0
                    0x0aa0                  _CM4MSKCONbits = 0xaa0
                    0x0aa2                  CM4FLTR = 0xaa2
                    0x0aa2                  _CM4FLTR = 0xaa2
                    0x0aa2                  _CM4FLTRbits = 0xaa2
                    0x0ac0                  PTGCST = 0xac0
                    0x0ac0                  _PTGCST = 0xac0
                    0x0ac0                  _PTGCSTbits = 0xac0
                    0x0ac2                  PTGCON = 0xac2
                    0x0ac2                  _PTGCON = 0xac2
                    0x0ac2                  _PTGCONbits = 0xac2
                    0x0ac4                  PTGBTE = 0xac4
                    0x0ac4                  _PTGBTE = 0xac4
                    0x0ac4                  _PTGBTEbits = 0xac4
                    0x0ac6                  PTGHOLD = 0xac6
                    0x0ac6                  _PTGHOLD = 0xac6
                    0x0ac8                  PTGT0LIM = 0xac8
                    0x0ac8                  _PTGT0LIM = 0xac8
                    0x0aca                  PTGT1LIM = 0xaca
                    0x0aca                  _PTGT1LIM = 0xaca
                    0x0acc                  PTGSDLIM = 0xacc
                    0x0acc                  _PTGSDLIM = 0xacc
                    0x0ace                  PTGC0LIM = 0xace
                    0x0ace                  _PTGC0LIM = 0xace
                    0x0ad0                  PTGC1LIM = 0xad0
                    0x0ad0                  _PTGC1LIM = 0xad0
                    0x0ad2                  PTGADJ = 0xad2
                    0x0ad2                  _PTGADJ = 0xad2
                    0x0ad4                  PTGL0 = 0xad4
                    0x0ad4                  _PTGL0 = 0xad4
                    0x0ad6                  PTGQPTR = 0xad6
                    0x0ad6                  _PTGQPTR = 0xad6
                    0x0ad6                  _PTGQPTRbits = 0xad6
                    0x0ad8                  PTGQUE0 = 0xad8
                    0x0ad8                  _PTGQUE0 = 0xad8
                    0x0ad8                  _PTGQUE0bits = 0xad8
                    0x0ada                  PTGQUE1 = 0xada
                    0x0ada                  _PTGQUE1 = 0xada
                    0x0ada                  _PTGQUE1bits = 0xada
                    0x0adc                  PTGQUE2 = 0xadc
                    0x0adc                  _PTGQUE2 = 0xadc
                    0x0adc                  _PTGQUE2bits = 0xadc
                    0x0ade                  PTGQUE3 = 0xade
                    0x0ade                  _PTGQUE3 = 0xade
                    0x0ade                  _PTGQUE3bits = 0xade
                    0x0ae0                  PTGQUE4 = 0xae0
                    0x0ae0                  _PTGQUE4 = 0xae0
                    0x0ae0                  _PTGQUE4bits = 0xae0
                    0x0ae2                  PTGQUE5 = 0xae2
                    0x0ae2                  _PTGQUE5 = 0xae2
                    0x0ae2                  _PTGQUE5bits = 0xae2
                    0x0ae4                  PTGQUE6 = 0xae4
                    0x0ae4                  _PTGQUE6 = 0xae4
                    0x0ae4                  _PTGQUE6bits = 0xae4
                    0x0ae6                  PTGQUE7 = 0xae6
                    0x0ae6                  _PTGQUE7 = 0xae6
                    0x0ae6                  _PTGQUE7bits = 0xae6
                    0x0b00                  DMA0CON = 0xb00
                    0x0b00                  _DMA0CON = 0xb00
                    0x0b00                  _DMA0CONbits = 0xb00
                    0x0b02                  DMA0REQ = 0xb02
                    0x0b02                  _DMA0REQ = 0xb02
                    0x0b02                  _DMA0REQbits = 0xb02
                    0x0b04                  DMA0STAL = 0xb04
                    0x0b04                  _DMA0STAL = 0xb04
                    0x0b06                  DMA0STAH = 0xb06
                    0x0b06                  _DMA0STAH = 0xb06
                    0x0b06                  _DMA0STAHbits = 0xb06
                    0x0b08                  DMA0STBL = 0xb08
                    0x0b08                  _DMA0STBL = 0xb08
                    0x0b0a                  DMA0STBH = 0xb0a
                    0x0b0a                  _DMA0STBH = 0xb0a
                    0x0b0a                  _DMA0STBHbits = 0xb0a
                    0x0b0c                  DMA0PAD = 0xb0c
                    0x0b0c                  _DMA0PAD = 0xb0c
                    0x0b0e                  DMA0CNT = 0xb0e
                    0x0b0e                  _DMA0CNT = 0xb0e
                    0x0b0e                  _DMA0CNTbits = 0xb0e
                    0x0b10                  DMA1CON = 0xb10
                    0x0b10                  _DMA1CON = 0xb10
                    0x0b10                  _DMA1CONbits = 0xb10
                    0x0b12                  DMA1REQ = 0xb12
                    0x0b12                  _DMA1REQ = 0xb12
                    0x0b12                  _DMA1REQbits = 0xb12
                    0x0b14                  DMA1STAL = 0xb14
                    0x0b14                  _DMA1STAL = 0xb14
                    0x0b16                  DMA1STAH = 0xb16
                    0x0b16                  _DMA1STAH = 0xb16
                    0x0b16                  _DMA1STAHbits = 0xb16
                    0x0b18                  DMA1STBL = 0xb18
                    0x0b18                  _DMA1STBL = 0xb18
                    0x0b1a                  DMA1STBH = 0xb1a
                    0x0b1a                  _DMA1STBH = 0xb1a
                    0x0b1a                  _DMA1STBHbits = 0xb1a
                    0x0b1c                  DMA1PAD = 0xb1c
                    0x0b1c                  _DMA1PAD = 0xb1c
                    0x0b1e                  DMA1CNT = 0xb1e
                    0x0b1e                  _DMA1CNT = 0xb1e
                    0x0b1e                  _DMA1CNTbits = 0xb1e
                    0x0b20                  DMA2CON = 0xb20
                    0x0b20                  _DMA2CON = 0xb20
                    0x0b20                  _DMA2CONbits = 0xb20
                    0x0b22                  DMA2REQ = 0xb22
                    0x0b22                  _DMA2REQ = 0xb22
                    0x0b22                  _DMA2REQbits = 0xb22
                    0x0b24                  DMA2STAL = 0xb24
                    0x0b24                  _DMA2STAL = 0xb24
                    0x0b26                  DMA2STAH = 0xb26
                    0x0b26                  _DMA2STAH = 0xb26
                    0x0b26                  _DMA2STAHbits = 0xb26
                    0x0b28                  DMA2STBL = 0xb28
                    0x0b28                  _DMA2STBL = 0xb28
                    0x0b2a                  DMA2STBH = 0xb2a
                    0x0b2a                  _DMA2STBH = 0xb2a
                    0x0b2a                  _DMA2STBHbits = 0xb2a
                    0x0b2c                  DMA2PAD = 0xb2c
                    0x0b2c                  _DMA2PAD = 0xb2c
                    0x0b2e                  DMA2CNT = 0xb2e
                    0x0b2e                  _DMA2CNT = 0xb2e
                    0x0b2e                  _DMA2CNTbits = 0xb2e
                    0x0b30                  DMA3CON = 0xb30
                    0x0b30                  _DMA3CON = 0xb30
                    0x0b30                  _DMA3CONbits = 0xb30
                    0x0b32                  DMA3REQ = 0xb32
                    0x0b32                  _DMA3REQ = 0xb32
                    0x0b32                  _DMA3REQbits = 0xb32
                    0x0b34                  DMA3STAL = 0xb34
                    0x0b34                  _DMA3STAL = 0xb34
                    0x0b36                  DMA3STAH = 0xb36
                    0x0b36                  _DMA3STAH = 0xb36
                    0x0b36                  _DMA3STAHbits = 0xb36
                    0x0b38                  DMA3STBL = 0xb38
                    0x0b38                  _DMA3STBL = 0xb38
                    0x0b3a                  DMA3STBH = 0xb3a
                    0x0b3a                  _DMA3STBH = 0xb3a
                    0x0b3a                  _DMA3STBHbits = 0xb3a
                    0x0b3c                  DMA3PAD = 0xb3c
                    0x0b3c                  _DMA3PAD = 0xb3c
                    0x0b3e                  DMA3CNT = 0xb3e
                    0x0b3e                  _DMA3CNT = 0xb3e
                    0x0b3e                  _DMA3CNTbits = 0xb3e
                    0x0bf0                  DMAPWC = 0xbf0
                    0x0bf0                  _DMAPWC = 0xbf0
                    0x0bf0                  _DMAPWCbits = 0xbf0
                    0x0bf2                  DMARQC = 0xbf2
                    0x0bf2                  _DMARQC = 0xbf2
                    0x0bf2                  _DMARQCbits = 0xbf2
                    0x0bf4                  DMAPPS = 0xbf4
                    0x0bf4                  _DMAPPS = 0xbf4
                    0x0bf4                  _DMAPPSbits = 0xbf4
                    0x0bf6                  DMALCA = 0xbf6
                    0x0bf6                  _DMALCA = 0xbf6
                    0x0bf6                  _DMALCAbits = 0xbf6
                    0x0bf8                  DSADRL = 0xbf8
                    0x0bf8                  _DSADRL = 0xbf8
                    0x0bfa                  DSADRH = 0xbfa
                    0x0bfa                  _DSADRH = 0xbfa
                    0x0bfa                  _DSADRHbits = 0xbfa
                    0x0c00                  PTCON = 0xc00
                    0x0c00                  _PTCON = 0xc00
                    0x0c00                  _PTCONbits = 0xc00
                    0x0c02                  PTCON2 = 0xc02
                    0x0c02                  _PTCON2 = 0xc02
                    0x0c02                  _PTCON2bits = 0xc02
                    0x0c04                  PTPER = 0xc04
                    0x0c04                  _PTPER = 0xc04
                    0x0c06                  SEVTCMP = 0xc06
                    0x0c06                  _SEVTCMP = 0xc06
                    0x0c0a                  MDC = 0xc0a
                    0x0c0a                  _MDC = 0xc0a
                    0x0c1a                  CHOP = 0xc1a
                    0x0c1a                  _CHOP = 0xc1a
                    0x0c1a                  _CHOPbits = 0xc1a
                    0x0c1e                  PWMKEY = 0xc1e
                    0x0c1e                  _PWMKEY = 0xc1e
                    0x0c20                  PWMCON1 = 0xc20
                    0x0c20                  _PWMCON1 = 0xc20
                    0x0c20                  _PWMCON1bits = 0xc20
                    0x0c22                  IOCON1 = 0xc22
                    0x0c22                  _IOCON1 = 0xc22
                    0x0c22                  _IOCON1bits = 0xc22
                    0x0c24                  FCLCON1 = 0xc24
                    0x0c24                  _FCLCON1 = 0xc24
                    0x0c24                  _FCLCON1bits = 0xc24
                    0x0c26                  PDC1 = 0xc26
                    0x0c26                  _PDC1 = 0xc26
                    0x0c28                  PHASE1 = 0xc28
                    0x0c28                  _PHASE1 = 0xc28
                    0x0c2a                  DTR1 = 0xc2a
                    0x0c2a                  _DTR1 = 0xc2a
                    0x0c2c                  ALTDTR1 = 0xc2c
                    0x0c2c                  _ALTDTR1 = 0xc2c
                    0x0c32                  TRIG1 = 0xc32
                    0x0c32                  _TRIG1 = 0xc32
                    0x0c32                  _TRIG1bits = 0xc32
                    0x0c34                  TRGCON1 = 0xc34
                    0x0c34                  _TRGCON1 = 0xc34
                    0x0c34                  _TRGCON1bits = 0xc34
                    0x0c3a                  LEBCON1 = 0xc3a
                    0x0c3a                  _LEBCON1 = 0xc3a
                    0x0c3a                  _LEBCON1bits = 0xc3a
                    0x0c3c                  LEBDLY1 = 0xc3c
                    0x0c3c                  _LEBDLY1 = 0xc3c
                    0x0c3c                  _LEBDLY1bits = 0xc3c
                    0x0c3e                  AUXCON1 = 0xc3e
                    0x0c3e                  _AUXCON1 = 0xc3e
                    0x0c3e                  _AUXCON1bits = 0xc3e
                    0x0c40                  PWMCON2 = 0xc40
                    0x0c40                  _PWMCON2 = 0xc40
                    0x0c40                  _PWMCON2bits = 0xc40
                    0x0c42                  IOCON2 = 0xc42
                    0x0c42                  _IOCON2 = 0xc42
                    0x0c42                  _IOCON2bits = 0xc42
                    0x0c44                  FCLCON2 = 0xc44
                    0x0c44                  _FCLCON2 = 0xc44
                    0x0c44                  _FCLCON2bits = 0xc44
                    0x0c46                  PDC2 = 0xc46
                    0x0c46                  _PDC2 = 0xc46
                    0x0c48                  PHASE2 = 0xc48
                    0x0c48                  _PHASE2 = 0xc48
                    0x0c4a                  DTR2 = 0xc4a
                    0x0c4a                  _DTR2 = 0xc4a
                    0x0c4c                  ALTDTR2 = 0xc4c
                    0x0c4c                  _ALTDTR2 = 0xc4c
                    0x0c52                  TRIG2 = 0xc52
                    0x0c52                  _TRIG2 = 0xc52
                    0x0c52                  _TRIG2bits = 0xc52
                    0x0c54                  TRGCON2 = 0xc54
                    0x0c54                  _TRGCON2 = 0xc54
                    0x0c54                  _TRGCON2bits = 0xc54
                    0x0c5a                  LEBCON2 = 0xc5a
                    0x0c5a                  _LEBCON2 = 0xc5a
                    0x0c5a                  _LEBCON2bits = 0xc5a
                    0x0c5c                  LEBDLY2 = 0xc5c
                    0x0c5c                  _LEBDLY2 = 0xc5c
                    0x0c5c                  _LEBDLY2bits = 0xc5c
                    0x0c5e                  AUXCON2 = 0xc5e
                    0x0c5e                  _AUXCON2 = 0xc5e
                    0x0c5e                  _AUXCON2bits = 0xc5e
                    0x0c60                  PWMCON3 = 0xc60
                    0x0c60                  _PWMCON3 = 0xc60
                    0x0c60                  _PWMCON3bits = 0xc60
                    0x0c62                  IOCON3 = 0xc62
                    0x0c62                  _IOCON3 = 0xc62
                    0x0c62                  _IOCON3bits = 0xc62
                    0x0c64                  FCLCON3 = 0xc64
                    0x0c64                  _FCLCON3 = 0xc64
                    0x0c64                  _FCLCON3bits = 0xc64
                    0x0c66                  PDC3 = 0xc66
                    0x0c66                  _PDC3 = 0xc66
                    0x0c68                  PHASE3 = 0xc68
                    0x0c68                  _PHASE3 = 0xc68
                    0x0c6a                  DTR3 = 0xc6a
                    0x0c6a                  _DTR3 = 0xc6a
                    0x0c6c                  ALTDTR3 = 0xc6c
                    0x0c6c                  _ALTDTR3 = 0xc6c
                    0x0c72                  TRIG3 = 0xc72
                    0x0c72                  _TRIG3 = 0xc72
                    0x0c72                  _TRIG3bits = 0xc72
                    0x0c74                  TRGCON3 = 0xc74
                    0x0c74                  _TRGCON3 = 0xc74
                    0x0c74                  _TRGCON3bits = 0xc74
                    0x0c7a                  LEBCON3 = 0xc7a
                    0x0c7a                  _LEBCON3 = 0xc7a
                    0x0c7a                  _LEBCON3bits = 0xc7a
                    0x0c7c                  LEBDLY3 = 0xc7c
                    0x0c7c                  _LEBDLY3 = 0xc7c
                    0x0c7c                  _LEBDLY3bits = 0xc7c
                    0x0c7e                  AUXCON3 = 0xc7e
                    0x0c7e                  _AUXCON3 = 0xc7e
                    0x0c7e                  _AUXCON3bits = 0xc7e
                    0x0e00                  TRISA = 0xe00
                    0x0e00                  _TRISA = 0xe00
                    0x0e00                  _TRISAbits = 0xe00
                    0x0e02                  PORTA = 0xe02
                    0x0e02                  _PORTA = 0xe02
                    0x0e02                  _PORTAbits = 0xe02
                    0x0e04                  LATA = 0xe04
                    0x0e04                  _LATA = 0xe04
                    0x0e04                  _LATAbits = 0xe04
                    0x0e06                  ODCA = 0xe06
                    0x0e06                  _ODCA = 0xe06
                    0x0e06                  _ODCAbits = 0xe06
                    0x0e08                  CNENA = 0xe08
                    0x0e08                  _CNENA = 0xe08
                    0x0e08                  _CNENAbits = 0xe08
                    0x0e0a                  CNPUA = 0xe0a
                    0x0e0a                  _CNPUA = 0xe0a
                    0x0e0a                  _CNPUAbits = 0xe0a
                    0x0e0c                  CNPDA = 0xe0c
                    0x0e0c                  _CNPDA = 0xe0c
                    0x0e0c                  _CNPDAbits = 0xe0c
                    0x0e0e                  ANSELA = 0xe0e
                    0x0e0e                  _ANSELA = 0xe0e
                    0x0e0e                  _ANSELAbits = 0xe0e
                    0x0e10                  TRISB = 0xe10
                    0x0e10                  _TRISB = 0xe10
                    0x0e10                  _TRISBbits = 0xe10
                    0x0e12                  PORTB = 0xe12
                    0x0e12                  _PORTB = 0xe12
                    0x0e12                  _PORTBbits = 0xe12
                    0x0e14                  LATB = 0xe14
                    0x0e14                  _LATB = 0xe14
                    0x0e14                  _LATBbits = 0xe14
                    0x0e16                  ODCB = 0xe16
                    0x0e16                  _ODCB = 0xe16
                    0x0e16                  _ODCBbits = 0xe16
                    0x0e18                  CNENB = 0xe18
                    0x0e18                  _CNENB = 0xe18
                    0x0e18                  _CNENBbits = 0xe18
                    0x0e1a                  CNPUB = 0xe1a
                    0x0e1a                  _CNPUB = 0xe1a
                    0x0e1a                  _CNPUBbits = 0xe1a
                    0x0e1c                  CNPDB = 0xe1c
                    0x0e1c                  _CNPDB = 0xe1c
                    0x0e1c                  _CNPDBbits = 0xe1c
                    0x0e1e                  ANSELB = 0xe1e
                    0x0e1e                  _ANSELB = 0xe1e
                    0x0e1e                  _ANSELBbits = 0xe1e
                    0x0e20                  TRISC = 0xe20
                    0x0e20                  _TRISC = 0xe20
                    0x0e20                  _TRISCbits = 0xe20
                    0x0e22                  PORTC = 0xe22
                    0x0e22                  _PORTC = 0xe22
                    0x0e22                  _PORTCbits = 0xe22
                    0x0e24                  LATC = 0xe24
                    0x0e24                  _LATC = 0xe24
                    0x0e24                  _LATCbits = 0xe24
                    0x0e26                  ODCC = 0xe26
                    0x0e26                  _ODCC = 0xe26
                    0x0e26                  _ODCCbits = 0xe26
                    0x0e28                  CNENC = 0xe28
                    0x0e28                  _CNENC = 0xe28
                    0x0e28                  _CNENCbits = 0xe28
                    0x0e2a                  CNPUC = 0xe2a
                    0x0e2a                  _CNPUC = 0xe2a
                    0x0e2a                  _CNPUCbits = 0xe2a
                    0x0e2c                  CNPDC = 0xe2c
                    0x0e2c                  _CNPDC = 0xe2c
                    0x0e2c                  _CNPDCbits = 0xe2c
                    0x0e2e                  ANSELC = 0xe2e
                    0x0e2e                  _ANSELC = 0xe2e
                    0x0e2e                  _ANSELCbits = 0xe2e
                    0x0e30                  TRISD = 0xe30
                    0x0e30                  _TRISD = 0xe30
                    0x0e30                  _TRISDbits = 0xe30
                    0x0e32                  PORTD = 0xe32
                    0x0e32                  _PORTD = 0xe32
                    0x0e32                  _PORTDbits = 0xe32
                    0x0e34                  LATD = 0xe34
                    0x0e34                  _LATD = 0xe34
                    0x0e34                  _LATDbits = 0xe34
                    0x0e36                  ODCD = 0xe36
                    0x0e36                  _ODCD = 0xe36
                    0x0e36                  _ODCDbits = 0xe36
                    0x0e38                  CNEND = 0xe38
                    0x0e38                  _CNEND = 0xe38
                    0x0e38                  _CNENDbits = 0xe38
                    0x0e3a                  CNPUD = 0xe3a
                    0x0e3a                  _CNPUD = 0xe3a
                    0x0e3a                  _CNPUDbits = 0xe3a
                    0x0e3c                  CNPDD = 0xe3c
                    0x0e3c                  _CNPDD = 0xe3c
                    0x0e3c                  _CNPDDbits = 0xe3c
                    0x0e40                  TRISE = 0xe40
                    0x0e40                  _TRISE = 0xe40
                    0x0e40                  _TRISEbits = 0xe40
                    0x0e42                  PORTE = 0xe42
                    0x0e42                  _PORTE = 0xe42
                    0x0e42                  _PORTEbits = 0xe42
                    0x0e44                  LATE = 0xe44
                    0x0e44                  _LATE = 0xe44
                    0x0e44                  _LATEbits = 0xe44
                    0x0e46                  ODCE = 0xe46
                    0x0e46                  _ODCE = 0xe46
                    0x0e46                  _ODCEbits = 0xe46
                    0x0e48                  CNENE = 0xe48
                    0x0e48                  _CNENE = 0xe48
                    0x0e48                  _CNENEbits = 0xe48
                    0x0e4a                  CNPUE = 0xe4a
                    0x0e4a                  _CNPUE = 0xe4a
                    0x0e4a                  _CNPUEbits = 0xe4a
                    0x0e4c                  CNPDE = 0xe4c
                    0x0e4c                  _CNPDE = 0xe4c
                    0x0e4c                  _CNPDEbits = 0xe4c
                    0x0e4e                  ANSELE = 0xe4e
                    0x0e4e                  _ANSELE = 0xe4e
                    0x0e4e                  _ANSELEbits = 0xe4e
                    0x0e50                  TRISF = 0xe50
                    0x0e50                  _TRISF = 0xe50
                    0x0e50                  _TRISFbits = 0xe50
                    0x0e52                  PORTF = 0xe52
                    0x0e52                  _PORTF = 0xe52
                    0x0e52                  _PORTFbits = 0xe52
                    0x0e54                  LATF = 0xe54
                    0x0e54                  _LATF = 0xe54
                    0x0e54                  _LATFbits = 0xe54
                    0x0e56                  ODCF = 0xe56
                    0x0e56                  _ODCF = 0xe56
                    0x0e56                  _ODCFbits = 0xe56
                    0x0e58                  CNENF = 0xe58
                    0x0e58                  _CNENF = 0xe58
                    0x0e58                  _CNENFbits = 0xe58
                    0x0e5a                  CNPUF = 0xe5a
                    0x0e5a                  _CNPUF = 0xe5a
                    0x0e5a                  _CNPUFbits = 0xe5a
                    0x0e5c                  CNPDF = 0xe5c
                    0x0e5c                  _CNPDF = 0xe5c
                    0x0e5c                  _CNPDFbits = 0xe5c
                    0x0e60                  TRISG = 0xe60
                    0x0e60                  _TRISG = 0xe60
                    0x0e60                  _TRISGbits = 0xe60
                    0x0e62                  PORTG = 0xe62
                    0x0e62                  _PORTG = 0xe62
                    0x0e62                  _PORTGbits = 0xe62
                    0x0e64                  LATG = 0xe64
                    0x0e64                  _LATG = 0xe64
                    0x0e64                  _LATGbits = 0xe64
                    0x0e66                  ODCG = 0xe66
                    0x0e66                  _ODCG = 0xe66
                    0x0e66                  _ODCGbits = 0xe66
                    0x0e68                  CNENG = 0xe68
                    0x0e68                  _CNENG = 0xe68
                    0x0e68                  _CNENGbits = 0xe68
                    0x0e6a                  CNPUG = 0xe6a
                    0x0e6a                  _CNPUG = 0xe6a
                    0x0e6a                  _CNPUGbits = 0xe6a
                    0x0e6c                  CNPDG = 0xe6c
                    0x0e6c                  _CNPDG = 0xe6c
                    0x0e6c                  _CNPDGbits = 0xe6c
                    0x0fa0                  _APPO = 0xfa0
                    0x0fa0                  __APPO = 0xfa0
                    0x0fa2                  _APPIN = 0xfa2
                    0x0fa2                  __APPIN = 0xfa2
                    0x0fa4                  APPS = 0xfa4
                    0x0fa4                  _APPS = 0xfa4
                    0x0fa4                  _APPSbits = 0xfa4
                    0x0fa6                  STROUTL = 0xfa6
                    0x0fa6                  _STROUTL = 0xfa6
                    0x0fa8                  STROUTH = 0xfa8
                    0x0fa8                  _STROUTH = 0xfa8
                    0x0faa                  STROVCNT = 0xfaa
                    0x0faa                  _STROVCNT = 0xfaa
                    0x0ff0                  JDATAH = 0xff0
                    0x0ff0                  _JDATAH = 0xff0
                    0x0ff2                  JDATAL = 0xff2
                    0x0ff2                  _JDATAL = 0xff2
                    0x0144                  IC1 = 0x144
                    0x0144                  _IC1 = 0x144
                    0x014c                  IC2 = 0x14c
                    0x014c                  _IC2 = 0x14c
                    0x0154                  IC3 = 0x154
                    0x0154                  _IC3 = 0x154
                    0x015c                  IC4 = 0x15c
                    0x015c                  _IC4 = 0x15c
                    0x0904                  OC1 = 0x904
                    0x0904                  _OC1 = 0x904
                    0x090e                  OC2 = 0x90e
                    0x090e                  _OC2 = 0x90e
                    0x0918                  OC3 = 0x918
                    0x0918                  _OC3 = 0x918
                    0x0922                  OC4 = 0x922
                    0x0922                  _OC4 = 0x922
                    0x0240                  SPI1 = 0x240
                    0x0240                  _SPI1 = 0x240
                    0x0260                  SPI2 = 0x260
                    0x0260                  _SPI2 = 0x260
                    0x0220                  UART1 = 0x220
                    0x0220                  _UART1 = 0x220
                    0x0230                  UART2 = 0x230
                    0x0230                  _UART2 = 0x230
                    0x0001                  __MPLAB_BUILD = 0x1
START GROUP
LOAD c:/program files (x86)/microchip/xc16/v1.20/bin/bin/../../lib\libfx-coff.a
LOAD c:/program files (x86)/microchip/xc16/v1.20/bin/bin/../../lib\libpic30-coff.a
LOAD c:/program files (x86)/microchip/xc16/v1.20/bin/bin/../../lib\libm-coff.a
LOAD c:/program files (x86)/microchip/xc16/v1.20/bin/bin/../../lib\libc-coff.a
END GROUP
OUTPUT(BPT.cof coff-pic30)
LOAD data_init
LOAD default_isr

__c30_signature
                  0x000000        0x1c2
 __c30_signature
                  0x000000          0x6 74HC595_Setup.o
 __c30_signature
                  0x000006          0x6 ADC_Setup.o
 __c30_signature
                  0x00000c          0x6 BPT.o
 __c30_signature
                  0x000012          0x6 BT_Functions.o
 __c30_signature
                  0x000018          0x6 Delay_Setup.o
 __c30_signature
                  0x00001e          0x6 EEPROM_Setup.o
 __c30_signature
                  0x000024          0x6 FAT32_Setup.o
 __c30_signature
                  0x00002a          0x6 Grid_Setup.o
 __c30_signature
                  0x000030          0x6 Interrupts.o
 __c30_signature
                  0x000036          0x6 IR_Controls.o
 __c30_signature
                  0x00003c          0x6 IR_Sensors.o
 __c30_signature
                  0x000042          0x6 LCD_Setup.o
 __c30_signature
                  0x000048          0x6 LED_Control.o
 __c30_signature
                  0x00004e          0x6 LED_Graphics.o
 __c30_signature
                  0x000054          0x6 PORT_Setup.o
 __c30_signature
                  0x00005a          0x6 PWM_Setup.o
 __c30_signature
                  0x000060          0x6 RS232_Setup.o
 __c30_signature
                  0x000066          0x6 SD_Setup.o
 __c30_signature
                  0x00006c          0x6 SPI_Setup.o
 __c30_signature
                  0x000072          0x6 Timers_Setup.o
 __c30_signature
                  0x000078          0x6 TLC5955_Setup.o
 __c30_signature
                  0x00007e          0x6 LCD_Control.o
 __c30_signature
                  0x000084          0x6 MSGEQ7_Setup.o
 __c30_signature
                  0x00008a          0x6 VU_Control.o
 __c30_signature
                  0x000090          0x6 File_Handling.o
 __c30_signature
                  0x000096          0x6 c:/program files (x86)/microchip/xc16/v1.20/bin/bin/../../lib/PIC24E\libp24EP256MC206-coff.a(OpenHSPWM.o)
 __c30_signature
                  0x00009c          0x6 c:/program files (x86)/microchip/xc16/v1.20/bin/bin/../../lib/PIC24E\libp24EP256MC206-coff.a(ConfigHSPWM1.o)
 __c30_signature
                  0x0000a2          0x6 c:/program files (x86)/microchip/xc16/v1.20/bin/bin/../../lib/PIC24E\libp24EP256MC206-coff.a(SetHSPWMDutyCycle1.o)
 __c30_signature
                  0x0000a8          0x6 c:/program files (x86)/microchip/xc16/v1.20/bin/bin/../../lib/PIC24E\libp24EP256MC206-coff.a(SetHSPWMDeadTime1.o)
 __c30_signature
                  0x0000ae          0x6 c:/program files (x86)/microchip/xc16/v1.20/bin/bin/../../lib\libpic30-coff.a(crt0_extendedep.o)
 __c30_signature
                  0x0000b4          0x6 c:/program files (x86)/microchip/xc16/v1.20/bin/bin/../../lib\libpic30-coff.a(delay32ep.o)
 __c30_signature
                  0x0000ba          0x6 c:/program files (x86)/microchip/xc16/v1.20/bin/bin/../../lib\libpic30-coff.a(data_init_extendedep.o)
 __c30_signature
                  0x0000c0          0x6 c:/program files (x86)/microchip/xc16/v1.20/bin/bin/../../lib\libm-coff.a(udivsi3.epo)
 __c30_signature
                  0x0000c6          0x6 c:/program files (x86)/microchip/xc16/v1.20/bin/bin/../../lib\libm-coff.a(umodsi3.epo)
 __c30_signature
                  0x0000cc          0x6 c:/program files (x86)/microchip/xc16/v1.20/bin/bin/../../lib\libm-coff.a(floatunsisf.epo)
 __c30_signature
                  0x0000d2          0x6 c:/program files (x86)/microchip/xc16/v1.20/bin/bin/../../lib\libm-coff.a(fixunssfsi.epo)
 __c30_signature
                  0x0000d8          0x6 c:/program files (x86)/microchip/xc16/v1.20/bin/bin/../../lib\libm-coff.a(floatsisf.epo)
 __c30_signature
                  0x0000de          0x6 c:/program files (x86)/microchip/xc16/v1.20/bin/bin/../../lib\libm-coff.a(divsf3.epo)
 __c30_signature
                  0x0000e4          0x6 c:/program files (x86)/microchip/xc16/v1.20/bin/bin/../../lib\libm-coff.a(feqltle.epo)
 __c30_signature
                  0x0000ea          0x6 c:/program files (x86)/microchip/xc16/v1.20/bin/bin/../../lib\libm-coff.a(fne.epo)
 __c30_signature
                  0x0000f0          0x6 c:/program files (x86)/microchip/xc16/v1.20/bin/bin/../../lib\libm-coff.a(addsf3.epo)
 __c30_signature
                  0x0000f6          0x6 c:/program files (x86)/microchip/xc16/v1.20/bin/bin/../../lib\libm-coff.a(mulsf3.epo)
 __c30_signature
                  0x0000fc          0x6 c:/program files (x86)/microchip/xc16/v1.20/bin/bin/../../lib\libm-coff.a(sinf.epo)
 __c30_signature
                  0x000102          0x6 c:/program files (x86)/microchip/xc16/v1.20/bin/bin/../../lib\libm-coff.a(fixsfsi.epo)
 __c30_signature
                  0x000108          0x6 c:/program files (x86)/microchip/xc16/v1.20/bin/bin/../../lib\libm-coff.a(fgtge.epo)
 __c30_signature
                  0x00010e          0x6 c:/program files (x86)/microchip/xc16/v1.20/bin/bin/../../lib\libm-coff.a(divmoddi3.epo)
 __c30_signature
                  0x000114          0x6 c:/program files (x86)/microchip/xc16/v1.20/bin/bin/../../lib\libm-coff.a(floatundisf.epo)
 __c30_signature
                  0x00011a          0x6 c:/program files (x86)/microchip/xc16/v1.20/bin/bin/../../lib\libm-coff.a(funpack.epo)
 __c30_signature
                  0x000120          0x6 c:/program files (x86)/microchip/xc16/v1.20/bin/bin/../../lib\libm-coff.a(floatdisf.epo)
 __c30_signature
                  0x000126          0x6 c:/program files (x86)/microchip/xc16/v1.20/bin/bin/../../lib\libm-coff.a(funpack2.epo)
 __c30_signature
                  0x00012c          0x6 c:/program files (x86)/microchip/xc16/v1.20/bin/bin/../../lib\libm-coff.a(futil.epo)
 __c30_signature
                  0x000132          0x6 c:/program files (x86)/microchip/xc16/v1.20/bin/bin/../../lib\libm-coff.a(fpack.epo)
 __c30_signature
                  0x000138          0x6 c:/program files (x86)/microchip/xc16/v1.20/bin/bin/../../lib\libm-coff.a(fcompare.epo)
 __c30_signature
                  0x00013e          0x6 c:/program files (x86)/microchip/xc16/v1.20/bin/bin/../../lib\libm-coff.a(sincosf.epo)
 __c30_signature
                  0x000144          0x6 c:/program files (x86)/microchip/xc16/v1.20/bin/bin/../../lib\libm-coff.a(errno.epo)
 __c30_signature
                  0x00014a          0x6 c:/program files (x86)/microchip/xc16/v1.20/bin/bin/../../lib\libm-coff.a(fmodf.epo)
 __c30_signature
                  0x000150          0x6 c:/program files (x86)/microchip/xc16/v1.20/bin/bin/../../lib\libm-coff.a(fmodrem.epo)
 __c30_signature
                  0x000156          0x6 c:/program files (x86)/microchip/xc16/v1.20/bin/bin/../../lib\libc-coff.a(memcpy.epo)
 __c30_signature
                  0x00015c          0x6 c:/program files (x86)/microchip/xc16/v1.20/bin/bin/../../lib\libc-coff.a(printf_cdnopsuxX.EPo)
 __c30_signature
                  0x000162          0x6 c:/program files (x86)/microchip/xc16/v1.20/bin/bin/../../lib\libc-coff.a(puts.epo)
 __c30_signature
                  0x000168          0x6 c:/program files (x86)/microchip/xc16/v1.20/bin/bin/../../lib\libc-coff.a(strcmp.epo)
 __c30_signature
                  0x00016e          0x6 c:/program files (x86)/microchip/xc16/v1.20/bin/bin/../../lib\libc-coff.a(strncmp.epo)
 __c30_signature
                  0x000174          0x6 c:/program files (x86)/microchip/xc16/v1.20/bin/bin/../../lib\libc-coff.a(memset.epo)
 __c30_signature
                  0x00017a          0x6 c:/program files (x86)/microchip/xc16/v1.20/bin/bin/../../lib\libc-coff.a(putchar.epo)
 __c30_signature
                  0x000180          0x6 c:/program files (x86)/microchip/xc16/v1.20/bin/bin/../../lib\libc-coff.a(strlen.epo)
 __c30_signature
                  0x000186          0x6 c:/program files (x86)/microchip/xc16/v1.20/bin/bin/../../lib\libc-coff.a(sprintf_cdnopuxX.EPo)
 __c30_signature
                  0x00018c          0x6 c:/program files (x86)/microchip/xc16/v1.20/bin/bin/../../lib\libc-coff.a(_iob.epo)
 __c30_signature
                  0x000192          0x6 c:/program files (x86)/microchip/xc16/v1.20/bin/bin/../../lib\libc-coff.a(doprnt_cdnopsuxX.EPo)
 __c30_signature
                  0x000198          0x6 c:/program files (x86)/microchip/xc16/v1.20/bin/bin/../../lib\libc-coff.a(fputc.epo)
 __c30_signature
                  0x00019e          0x6 c:/program files (x86)/microchip/xc16/v1.20/bin/bin/../../lib\libc-coff.a(flsbuf.epo)
 __c30_signature
                  0x0001a4          0x6 c:/program files (x86)/microchip/xc16/v1.20/bin/bin/../../lib\libpic30-coff.a(writeep.o)
 __c30_signature
                  0x0001aa          0x6 c:/program files (x86)/microchip/xc16/v1.20/bin/bin/../../lib\libpic30-coff.a(c30_uartep.o)
 __c30_signature
                  0x0001b0          0x6 c:/program files (x86)/microchip/xc16/v1.20/bin/bin/../../lib\libm-coff.a(mulsi3.epo)
 __c30_signature
                  0x0001b6          0x6 c:/program files (x86)/microchip/xc16/v1.20/bin/bin/../../lib\libm-coff.a(muldi3.epo)
 __c30_signature
                  0x0001bc          0x6 c:/program files (x86)/microchip/xc16/v1.20/bin/bin/../../lib\libm-coff.a(umuldi3.epo)

.nbss               0x1000        0x5e8
 .nbss              0x1000        0x5e8 BPT.o
                    0x1000                  seq
                    0x1032                  uart_str
                    0x1052                  global_str
                    0x1092                  UART_rx_buf
                    0x1112                  NEC_code
                    0x1116                  cal_light
                    0x1146                  IR_value
                    0x1176                  PODn
                    0x1272                  RGB_DIFF
                    0x1398                  RING_DIFF
                    0x13f8                  IR_duty
                    0x13fa                  TLC_data
                    0x14ba                  TLC_data2
                    0x157a                  RINGn
                    0x159a                  str_index
                    0x159b                  letter_buffer
                    0x15a2                  error_code
                    0x15a3                  str_length
                    0x15a4                  scroll_status
                    0x15a6                  TLC
                    0x15a8                  tlc_delay
                    0x15aa                  fLED
                    0x15ae                  ring_update
                    0x15b0                  pod_update
                    0x15b4                  FLAG1
                    0x15b6                  FAT32

.ndata              0x15e8        0x12a
 .ndata             0x15e8        0x12a BPT.o
                    0x15e8                  DA_grid
                    0x15ec                  DA_pods
                    0x15f0                  DA_rings
                    0x15f4                  LCD_pmenu
                    0x15f5                  LCD_cmenu
                    0x15f6                  ball_washers
                    0x15f8                  IR_sensors
                    0x15fc                  count32
                    0x1600                  grid_row
                    0x1630                  grid_frame
                    0x1660                  pod_brightness
                    0x1662                  ring_brightness
                    0x1664                  frame_update
                    0x1665                  keypress
                    0x1666                  VU_Meter
                    0x1668                  COLOR
                    0x16ec                  CUSTOM_COLOR1
                    0x16f8                  CUSTOM_COLOR2
                    0x1704                  VU_signal

.nbss               0x1712        0x128
 .nbss              0x1712         0xe2 LED_Graphics.o
 .nbss              0x17f4         0x46 MSGEQ7_Setup.o

.ndata              0x183a         0x5c
 .ndata             0x183a         0x36 SD_Setup.o
 .ndata             0x1870         0x26 LED_Graphics.o

.nbss               0x1896         0x4c
 .nbss              0x1896         0x14 IR_Sensors.o
 .nbss              0x18aa         0x12 IR_Controls.o
 .nbss              0x18bc         0x12 VU_Control.o
 .nbss              0x18ce         0x10 FAT32_Setup.o
 .nbss              0x18de          0x2 Grid_Setup.o
 .nbss              0x18e0          0x2 c:/program files (x86)/microchip/xc16/v1.20/bin/bin/../../lib\libm-coff.a(errno.epo)
                    0x18e0                  errno

.bss                0x18e2       0x1000
 .bss               0x18e2       0x1000 BPT.o
                    0x18e2                  SD_buf

.data.dpowers       0x28e2         0xa0
 .data.dpowers      0x28e2         0xa0 c:/program files (x86)/microchip/xc16/v1.20/bin/bin/../../lib\libc-coff.a(doprnt_cdnopsuxX.EPo)

.data               0x2982         0x2a
 .data              0x2982         0x2a c:/program files (x86)/microchip/xc16/v1.20/bin/bin/../../lib\libc-coff.a(doprnt_cdnopsuxX.EPo)

.data._iob          0x29ac         0x26
 .data._iob         0x29ac         0x26 c:/program files (x86)/microchip/xc16/v1.20/bin/bin/../../lib\libc-coff.a(_iob.epo)
                    0x29ac                  _iob
                    0x29d0                  _Files

.bss                0x29d2          0x6
 .bss               0x29d2          0x6 c:/program files (x86)/microchip/xc16/v1.20/bin/bin/../../lib\libc-coff.a(_iob.epo)
                    0x29d2                  _outdone
                    0x29d3                  _sibuf
                    0x29d5                  _sobuf

.data               0x29d8          0x2
 .data              0x29d8          0x2 c:/program files (x86)/microchip/xc16/v1.20/bin/bin/../../lib\libpic30-coff.a(c30_uartep.o)
                    0x29d8                  __C30_UART

.config_GCP       0x02affa          0x2
 .config_GCP      0x02affa          0x2 BPT.o

.config_IESO      0x02aff8          0x2
 .config_IESO     0x02aff8          0x2 BPT.o

.config_FCKSM     0x02aff6          0x2
 .config_FCKSM    0x02aff6          0x2 BPT.o

.config_FWDTEN    0x02aff4          0x2
 .config_FWDTEN
                  0x02aff4          0x2 BPT.o

.config_WDTWIN    0x02aff2          0x2
 .config_WDTWIN
                  0x02aff2          0x2 BPT.o

.config_JTAGEN    0x02aff0          0x2
 .config_JTAGEN
                  0x02aff0          0x2 BPT.o

.const              0xa566       0x2bc4 load address 0x002566  
 .const             0xa566       0x1f0c BT_Functions.o
 .const             0xc472        0x3ae BPT.o
                    0xc472                  DEFAULT_COLOR
                    0xc4f6                  UART_CMD
 .const             0xc820        0x34a LCD_Control.o
 .const             0xcb6a        0x31a LED_Graphics.o
                    0xcb6a                  font_5x7
 .const             0xce84        0x1c6 FAT32_Setup.o
 .const             0xd04a         0x62 File_Handling.o
 .const             0xd0ac         0x46 IR_Controls.o
 .const             0xd0f2         0x12 IR_Sensors.o
 .const             0xd104         0x12 VU_Control.o
 .const             0xd116          0xc SD_Setup.o
 .const             0xd122          0x8 MSGEQ7_Setup.o

.text             0x00512a       0x9de2
 .text            0x00512a       0x45ec LED_Graphics.o
                  0x00512a                  Intro_Animation
                  0x00529a                  Animate_On_Detection
                  0x00530a                  Corner_Circles_On_Detection
                  0x005352                  Scrolling_Arrows_On_Detection
                  0x0053c2                  Ball_Washer
                  0x0053e2                  Ball_Washers_Detect
                  0x005800                  Check_Pod_Animation
                  0x005a68                  Check_Grid_Animation
                  0x005b1e                  Check_Ring_Animation
                  0x005b60                  Cycle_Grid_Animations
                  0x005cd8                  Cycle_Pod_Animations
                  0x005ec2                  Cycle_Pod_Animations_Sense
                  0x006030                  Cycle_Ring_Animations
                  0x0060c4                  Box_Grid_In
                  0x006158                  Checkers
                  0x00620c                  Circle_Out
                  0x006292                  Color_Throb
                  0x0064d6                  Corner_Circles
                  0x00665e                  Crossfade_Rings
                  0x0068e8                  Cycle_Colors
                  0x006988                  Cycle_Rings
                  0x006c12                  Fade_Pod_Colors
                  0x0072ec                  LED_Pixel
                  0x007388                  Draw_Border
                  0x0073f4                  Draw_Circle
                  0x0074fc                  Draw_Rect
                  0x007576                  Invert_Grid
                  0x0075a6                  Draw_Sine
                  0x007702                  Dual_Wave
                  0x00792c                  End_Blast
                  0x007c3a                  Exploding_Circle
                  0x007cbe                  On_Pod_Change
                  0x007ddc                  Pod_Detect
                  0x007e44                  Pyramid_Chase
                  0x007f22                  Ring_Chase
                  0x008034                  Ripple_Out
                  0x008ca4                  Scoreboard
                  0x008d94                  Set_Scrolling_Text
                  0x008e10                  Set_Text
                  0x009020                  Scrolling_Arrows
                  0x00917c                  Update_Text
                  0x009280                  Pong_Animation
                  0x00962c                  Reset_Sequences
 .text            0x009716       0x15f2 LCD_Control.o
                  0x009716                  LCD_Screensaver
                  0x009736                  LCD_Settings
                  0x009756                  LCD_Ball_Washers
                  0x009788                  LCD_Firmware_Update
                  0x0097a8                  LCD_Brightness
                  0x0097c8                  LCD_Brightness_Pods
                  0x009832                  LCD_Brightness_Rings
                  0x0098a0                  LCD_Calibrate_Sensors
                  0x0098c0                  LCD_Underlighting
                  0x0098e0                  LCD_Pod_Animations
                  0x009900                  LCD_Grid_Animations
                  0x009920                  LCD_Ring_Animations
                  0x009940                  LCD_VU_Meter_Menu
                  0x009960                  LCD_VU_Mode1
                  0x009978                  LCD_VU_Mode2
                  0x009990                  LCD_VU_Mode3
                  0x0099a8                  LCD_VU_Mode4
                  0x0099c0                  LCD_VU_Random
                  0x0099d8                  LCD_Scoreboard_Menu
                  0x0099f8                  LCD_Show_Scoreboard
                  0x009ab2                  LCD_File_Transfer
                  0x009aca                  LCD_SD_Animation
                  0x009ae2                  LCD_SD_Card_Menu
                  0x009b02                  LCD_Bootloader_Msg
                  0x009bc0                  Update_LCD_Menu
                  0x00a158                  Handle_Key_Command
 .text            0x00ad08       0x1078 FAT32_Setup.o
                  0x00ad08                  FAT32_Init
                  0x00aea0                  FAT32_Open_File
                  0x00b154                  FAT32_Read_File
                  0x00b2c4                  FAT32_Write_File
                  0x00b7ba                  FAT32_Total_Free_Clusters
                  0x00b81e                  FAT32_Next_Cluster
                  0x00b8dc                  FAT32_Last_Cluster
                  0x00b9b2                  FAT32_Get_Offset
                  0x00b9d4                  FAT32_Next_Free_Cluster
                  0x00bad6                  FAT32_Write_FAT
                  0x00bbbc                  FAT32_Display_MBR
                  0x00bc96                  FAT32_File_Properties
                  0x00bd02                  FAT32_Display_Data
 .text            0x00bd80        0x94e LED_Control.o
                  0x00bd80                  Update_Channel
                  0x00bd98                  RGB_Pod
                  0x00be40                  RGB_Underlighting
                  0x00bea4                  Adjust_Pod_Brightness
                  0x00c06a                  Fill_Grid
                  0x00c08e                  Clear_Grid
                  0x00c0b0                  Disable_All_Features
                  0x00c10e                  Update_Ring
                  0x00c14e                  Fade_All_Pods
                  0x00c182                  Fade_All_Rings
                  0x00c1cc                  Fade_Pod
                  0x00c34a                  Fade_State
                  0x00c58c                  Fade_Ring
                  0x00c61c                  Pod_Set_Color
                  0x00c662                  Set_All_Pods
                  0x00c694                  Set_All_Rings
 .text            0x00c6ce        0x930 VU_Control.o
                  0x00c6ce                  Pods_VU_Mode1
                  0x00c8ee                  Pods_VU_Mode2
                  0x00ccee                  Display_Data
                  0x00cd24                  Bargraph_Update
                  0x00cdf8                  Grid_VU_Mode1
                  0x00ce7a                  Grid_VU_Mode2
 .text            0x00cffe        0x6f8 BT_Functions.o
                  0x00cffe                  HC06_Init
                  0x00d150                  Receive_Buffer_Size
                  0x00d1da                  Check_UART_Command
                  0x00d26c                  BT_Update_LED_Grid
                  0x00d2f0                  BT_IR_Sensor_Data
                  0x00d3d6                  Clear_UART_String
                  0x00d3f4                  Debug_Menu
                  0x00d472                  EEPROM_Help_Menu
                  0x00d4dc                  Find_Char
                  0x00d50e                  Find_Command
                  0x00d542                  Help_Menu
                  0x00d57c                  LED_Ring_Help_Menu
                  0x00d5de                  Pixel_Help_Menu
                  0x00d650                  Pod_Help_Menu
                  0x00d6e6                  UART_Execute_Command
 .text            0x00d6f6        0x69c SD_Setup.o
                  0x00d6f6                  SD_Command
                  0x00d728                  SD_Match
                  0x00d75e                  SD_Busy
                  0x00d786                  SD_Read_CSD
                  0x00d7f0                  SD_Capacity
                  0x00d89c                  SD_Init
                  0x00d92a                  SD_Read_Sector
                  0x00d9e6                  SD_Read_Mul_Sectors
                  0x00dadc                  SD_Write_Sector
                  0x00db98                  SD_Write_Mul_Sectors
                  0x00dc90                  SD_Erase_Sectors
 .text            0x00dd92        0x52a IR_Controls.o
                  0x00dd92                  Parse_IR_Data
                  0x00df16                  Check_Remote
 .text            0x00e2bc        0x346 LCD_Setup.o
                  0x00e2bc                  LCD_Init
                  0x00e336                  LCD_CMD
                  0x00e44c                  LCD_Send
                  0x00e562                  LCD_Cursor_Pos
                  0x00e57c                  LCD_Text
                  0x00e5b2                  LCD_Char
                  0x00e5c0                  LCD_Create_Character
 .text            0x00e602        0x33a BPT.o
                  0x00e602                  main
                  0x00e760                  _T1Interrupt
                  0x00e794                  _T3Interrupt
                  0x00e7ce                  _T4Interrupt
                  0x00e7e4                  _T5Interrupt
                  0x00e818                  _U1RXInterrupt
                  0x00e900                  _INT0Interrupt
                  0x00e914                  _IC1Interrupt
 .text            0x00e93c        0x32e MSGEQ7_Setup.o
                  0x00e93c                  MSGEQ7_Init
                  0x00e94e                  MSGEQ7_Read
                  0x00e988                  MSGEQ7_Auto_Adjust
 .text            0x00ec6a        0x2a2 IR_Sensors.o
                  0x00ec6a                  Sensor_Calibration
                  0x00eda4                  Update_All_Sensors
                  0x00eee6                  Enable_IR_Sensors
                  0x00eefa                  Set_IR_PWM

.dinit            0x00ef0c        0x218
 .dinit           0x00ef0c        0x218 data_init

.text             0x00f124        0x9c2
 .text            0x00f124        0x1d8 TLC5955_Setup.o
                  0x00f124                  TLC5955_Init
                  0x00f1fe                  TLC5955_Default_Init
                  0x00f236                  TLC5955_Update
                  0x00f262                  Write_Single_Bit
                  0x00f286                  TLC5955_Write_GS
 .text            0x00f2fc        0x192 Grid_Setup.o
                  0x00f2fc                  Grid_Init
                  0x00f304                  Grid_Frame_Update
                  0x00f332                  Grid_Control
                  0x00f412                  Shift_Grid_Right
                  0x00f450                  Shift_Grid_Left
 .text            0x00f48e        0x126 EEPROM_Setup.o
                  0x00f48e                  EEPROM_Init
                  0x00f498                  EEPROM_Command
                  0x00f4ac                  EEPROM_Write
                  0x00f552                  EEPROM_Read
                  0x00f59a                  EEPROM_Status
 .text            0x00f5b4        0x11e PORT_Setup.o
                  0x00f5b4                  PORT_Init
                  0x00f61e                  Oscillator_Init
                  0x00f676                  Modules_Init
 .text            0x00f6d2         0xc0 Interrupts.o
                  0x00f6d2                  INT0_Init
                  0x00f710                  INT1_Init
                  0x00f750                  INT2_Init
 .text            0x00f792         0xb6 RS232_Setup.o
                  0x00f792                  UART_Init
                  0x00f7e8                  UART_Set_Baudrate
                  0x00f812                  UART_Tx
                  0x00f82c                  UART_Rx
 .text            0x00f848         0xa0 File_Handling.o
                  0x00f848                  Run_SD_Animation
 .text            0x00f8e8         0x82 ADC_Setup.o
                  0x00f8e8                  ADC_Init
                  0x00f91e                  ADC_Read
                  0x00f936                  ADC_Read_SS
 .text            0x00f96a         0x7e Timers_Setup.o
                  0x00f96a                  TMR1_Init
                  0x00f986                  TMR2_Init
                  0x00f994                  TMR3_Init
                  0x00f9b0                  TMR4_Init
                  0x00f9cc                  TMR5_Init
 .text            0x00f9e8         0x5c SPI_Setup.o
                  0x00f9e8                  SPI1_Init
                  0x00f9fc                  SPI2_Init
                  0x00fa10                  SPI1_Send
                  0x00fa2a                  SPI2_Send
 .text            0x00fa44         0x40 74HC595_Setup.o
                  0x00fa44                  HC595_Init
                  0x00fa50                  HC595_Reset
                  0x00fa5a                  HC595_Send_Data
 .text            0x00fa84         0x32 PWM_Setup.o
                  0x00fa84                  PWM1_Init
 .text            0x00fab6         0x30 Delay_Setup.o
                  0x00fab6                  Time_Check
